SH SERIES C/C++ Compiler (Ver. 6.0C)                                                                 30-Jul-2013 13:37:29  PAGE    1

************ OBJECT LISTING ************

FILE NAME: E:\Anderain\fx-9860\fxTaumath\simfac.c

SCT OFFSET   CODE       C LABEL     INSTRUCTION OPERAND    COMMENT

        simfac.c     1    /* Simplify factorials
        simfac.c     2    
        simfac.c     3    The following script
        simfac.c     4    
        simfac.c     5            F(n,k) = k binomial(n,k)
        simfac.c     6            (F(n,k) + F(n,k-1)) / F(n+1,k)
        simfac.c     7    
        simfac.c     8    generates
        simfac.c     9    
        simfac.c    10           k! n!             n! (1 - k + n)!              k! n!
        simfac.c    11     -------------------- + -------------------- - ----------------------
        simfac.c    12     (-1 + k)! (1 + n)!     (1 + n)! (-k + n)!     k (-1 + k)! (1 + n)!
        simfac.c    13    
        simfac.c    14    Simplify each term to get
        simfac.c    15    
        simfac.c    16       k       1 - k + n       1
        simfac.c    17    ------- + ----------- - -------
        simfac.c    18     1 + n       1 + n       1 + n
        simfac.c    19    
        simfac.c    20    Then simplify the sum to get
        simfac.c    21    
        simfac.c    22       n
        simfac.c    23    -------
        simfac.c    24     1 + n
        simfac.c    25    
        simfac.c    26    */
        simfac.c    27    
        simfac.c    28    #include "stdafx.h"
        simfac.c    29    #include "defs.h"
        simfac.c    30    void simfac(void);
        simfac.c    31    static void simfac_term(void);
        simfac.c    32    static int yysimfac(int);
        simfac.c    33    
        simfac.c    34    // simplify factorials term-by-term
        simfac.c    35    
        simfac.c    36    void
        simfac.c    37    eval_simfac(void)
P   00000000              _eval_simfac:                    ; function: eval_simfac
                                                           ; frame size=8
    00000000 2FE6                   MOV.L       R14,@-R15
    00000002 4F22                   STS.L       PR,@-R15
        simfac.c    38    {
        simfac.c    39            push(cadr(p1));
    00000004 DE37                   MOV.L       L1575+4,R14; _p1
    00000006 64E2                   MOV.L       @R14,R4
    00000008 8448                   MOV.B       @(8,R4),R0
    0000000A 2008                   TST         R0,R0
    0000000C 8B02                   BF          L1153
    0000000E 64E2                   MOV.L       @R14,R4
    00000010 A004                   BRA         L1155
    00000012 5441                   MOV.L       @(4,R4),R4
    00000014              L1153:                            
    00000014 9364                   MOV.W       L1575,R3   ; H'0570
    00000016 D234                   MOV.L       L1575+8,R2 ; _symtab




SH SERIES C/C++ Compiler (Ver. 6.0C)                                                                 30-Jul-2013 13:37:29  PAGE    2


SCT OFFSET   CODE       C LABEL     INSTRUCTION OPERAND    COMMENT

    00000018 6422                   MOV.L       @R2,R4
    0000001A 343C                   ADD         R3,R4
    0000001C              L1155:                            
    0000001C 8448                   MOV.B       @(8,R4),R0
    0000001E 2008                   TST         R0,R0
    00000020 8B0C                   BF          L1152
    00000022 64E2                   MOV.L       @R14,R4
    00000024 8448                   MOV.B       @(8,R4),R0
    00000026 2008                   TST         R0,R0
    00000028 8B02                   BF          L1154
    0000002A 64E2                   MOV.L       @R14,R4
    0000002C A004                   BRA         L1156
    0000002E 5441                   MOV.L       @(4,R4),R4
    00000030              L1154:                            
    00000030 9356                   MOV.W       L1575,R3   ; H'0570
    00000032 D22D                   MOV.L       L1575+8,R2 ; _symtab
    00000034 6422                   MOV.L       @R2,R4
    00000036 343C                   ADD         R3,R4
    00000038              L1156:                            
    00000038 A004                   BRA         L1157
    0000003A 6442                   MOV.L       @R4,R4
    0000003C              L1152:                            
    0000003C 9350                   MOV.W       L1575,R3   ; H'0570
    0000003E D22A                   MOV.L       L1575+8,R2 ; _symtab
    00000040 6422                   MOV.L       @R2,R4
    00000042 343C                   ADD         R3,R4
    00000044              L1157:                            
    00000044 D329                   MOV.L       L1575+12,R3; _push
    00000046 430B                   JSR         @R3
    00000048 0009                   NOP
        simfac.c    40            eval();
    0000004A D229                   MOV.L       L1575+16,R2; _eval
    0000004C 420B                   JSR         @R2
    0000004E 0009                   NOP
        simfac.c    41            simfac();
    00000050 4F26                   LDS.L       @R15+,PR
    00000052 6EF6                   MOV.L       @R15+,R14
        simfac.c    42    }
        simfac.c    43    
        simfac.c    44    #if 1
        simfac.c    45    
        simfac.c    46    void
        simfac.c    47    simfac(void)
    00000054              _simfac:                         ; function: simfac
                                                           ; frame size=24
    00000054 2FE6                   MOV.L       R14,@-R15
    00000056 2FD6                   MOV.L       R13,@-R15
    00000058 2FC6                   MOV.L       R12,@-R15
    0000005A 2FB6                   MOV.L       R11,@-R15
    0000005C 4F22                   STS.L       PR,@-R15
    0000005E 7FFC                   ADD         #-4,R15
        simfac.c    48    {
        simfac.c    49            int h;
        simfac.c    50            save();
    00000060 D324                   MOV.L       L1575+20,R3; _save
    00000062 430B                   JSR         @R3
    00000064 0009                   NOP




SH SERIES C/C++ Compiler (Ver. 6.0C)                                                                 30-Jul-2013 13:37:29  PAGE    3


SCT OFFSET   CODE       C LABEL     INSTRUCTION OPERAND    COMMENT

        simfac.c    51            p1 = pop();
    00000066 DE1F                   MOV.L       L1575+4,R14; _p1
    00000068 D223                   MOV.L       L1575+24,R2; _pop
    0000006A 420B                   JSR         @R2
    0000006C 0009                   NOP
    0000006E 6403                   MOV         R0,R4
    00000070 2E02                   MOV.L       R0,@R14
    00000072 DC1E                   MOV.L       L1575+12,R12; _push
    00000074 DD1C                   MOV.L       L1575+8,R13; _symtab
    00000076 8448                   MOV.B       @(8,R4),R0
    00000078 2008                   TST         R0,R0
    0000007A 8B02                   BF          L1159
    0000007C 62E2                   MOV.L       @R14,R2
    0000007E A004                   BRA         L1160
    00000080 6322                   MOV.L       @R2,R3
    00000082              L1159:                            
    00000082 922D                   MOV.W       L1575,R2   ; H'0570
    00000084 D118                   MOV.L       L1575+8,R1 ; _symtab
    00000086 6312                   MOV.L       @R1,R3
    00000088 332C                   ADD         R2,R3
    0000008A              L1160:                            
    0000008A 62D2                   MOV.L       @R13,R2
    0000008C 720C                   ADD         #12,R2
    0000008E 3320                   CMP/EQ      R2,R3
    00000090 8B48                   BF          L1158
        simfac.c    52            if (car(p1) == symbol(ADD)) {
        simfac.c    53                    h = tos;
    00000092 D31A                   MOV.L       L1575+28,R3; _tos
    00000094 6232                   MOV.L       @R3,R2
    00000096 2F22                   MOV.L       R2,@R15
        simfac.c    54                    p1 = cdr(p1);
    00000098 62E2                   MOV.L       @R14,R2
    0000009A 8428                   MOV.B       @(8,R2),R0
    0000009C 2008                   TST         R0,R0
    0000009E 8B02                   BF          L1161
    000000A0 61E2                   MOV.L       @R14,R1
    000000A2 A004                   BRA         L1162
    000000A4 5111                   MOV.L       @(4,R1),R1
    000000A6              L1161:                            
    000000A6 921B                   MOV.W       L1575,R2   ; H'0570
    000000A8 D00F                   MOV.L       L1575+8,R0 ; _symtab
    000000AA 6102                   MOV.L       @R0,R1
    000000AC 312C                   ADD         R2,R1
    000000AE              L1162:                            
    000000AE 9B17                   MOV.W       L1575,R11  ; H'0570
        simfac.c    55                    while (p1 != symbol(NIL)) {
    000000B0 A02B                   BRA         L1163
    000000B2 2E12                   MOV.L       R1,@R14
    000000B4              L1164:                            
        simfac.c    56                            push(car(p1));
    000000B4 64E2                   MOV.L       @R14,R4
    000000B6 8448                   MOV.B       @(8,R4),R0
    000000B8 2008                   TST         R0,R0
    000000BA 8B02                   BF          L1165
    000000BC 64E2                   MOV.L       @R14,R4
    000000BE A004                   BRA         L1166
    000000C0 6442                   MOV.L       @R4,R4




SH SERIES C/C++ Compiler (Ver. 6.0C)                                                                 30-Jul-2013 13:37:29  PAGE    4


SCT OFFSET   CODE       C LABEL     INSTRUCTION OPERAND    COMMENT

    000000C2              L1165:                            
    000000C2 930D                   MOV.W       L1575,R3   ; H'0570
    000000C4 D208                   MOV.L       L1575+8,R2 ; _symtab
    000000C6 6422                   MOV.L       @R2,R4
    000000C8 343C                   ADD         R3,R4
    000000CA              L1166:                            
    000000CA 4C0B                   JSR         @R12
    000000CC 0009                   NOP
        simfac.c    57                            simfac_term();
    000000CE B035                   BSR         __$simfac_term
    000000D0 0009                   NOP
        simfac.c    58                            p1 = cdr(p1);
    000000D2 63E2                   MOV.L       @R14,R3
    000000D4 8438                   MOV.B       @(8,R3),R0
    000000D6 2008                   TST         R0,R0
    000000D8 8B12                   BF          L1167
    000000DA 62E2                   MOV.L       @R14,R2
    000000DC A014                   BRA         L1168
    000000DE 5221                   MOV.L       @(4,R2),R2
    000000E0              L1575:                            
    000000E0 0570                   .DATA.W     H'0570
    000000E2 0000                   .DATA.W     0
    000000E4 <00000000>             .DATA.L     _p1
    000000E8 <00000000>             .DATA.L     _symtab
    000000EC <00000000>             .DATA.L     _push
    000000F0 <00000000>             .DATA.L     _eval
    000000F4 <00000000>             .DATA.L     _save
    000000F8 <00000000>             .DATA.L     _pop
    000000FC <00000000>             .DATA.L     _tos
    00000100              L1167:                            
    00000100 9365                   MOV.W       L1576,R3   ; H'0570
    00000102 D134                   MOV.L       L1576+6,R1 ; _symtab
    00000104 6212                   MOV.L       @R1,R2
    00000106 323C                   ADD         R3,R2
    00000108              L1168:                            
    00000108 2E22                   MOV.L       R2,@R14
    0000010A              L1163:                            
    0000010A 63D2                   MOV.L       @R13,R3
    0000010C 62E2                   MOV.L       @R14,R2
    0000010E 33BC                   ADD         R11,R3
    00000110 3230                   CMP/EQ      R3,R2
    00000112 8BCF                   BF          L1164
        simfac.c    59                    }
        simfac.c    60                    add_all(tos - h);
    00000114 63F2                   MOV.L       @R15,R3
    00000116 D130                   MOV.L       L1576+10,R1; _tos
    00000118 D230                   MOV.L       L1576+14,R2; _add_all
    0000011A 6412                   MOV.L       @R1,R4
    0000011C 420B                   JSR         @R2
    0000011E 3438                   SUB         R3,R4
    00000120 A004                   BRA         L1169
    00000122 0009                   NOP
    00000124              L1158:                            
        simfac.c    61            } else {
        simfac.c    62                    push(p1);
    00000124 4C0B                   JSR         @R12
    00000126 0009                   NOP




SH SERIES C/C++ Compiler (Ver. 6.0C)                                                                 30-Jul-2013 13:37:29  PAGE    5


SCT OFFSET   CODE       C LABEL     INSTRUCTION OPERAND    COMMENT

        simfac.c    63                    simfac_term();
    00000128 B008                   BSR         __$simfac_term
    0000012A 0009                   NOP
    0000012C              L1169:                            
        simfac.c    64            }
        simfac.c    65            restore();
    0000012C D32C                   MOV.L       L1576+18,R3; _restore
    0000012E 7F04                   ADD         #4,R15
    00000130 4F26                   LDS.L       @R15+,PR
    00000132 6BF6                   MOV.L       @R15+,R11
    00000134 6CF6                   MOV.L       @R15+,R12
    00000136 6DF6                   MOV.L       @R15+,R13
    00000138 432B                   JMP         @R3
    0000013A 6EF6                   MOV.L       @R15+,R14
        simfac.c    66    }
        simfac.c    67    
        simfac.c    68    #else
        simfac.c    69    
        simfac.c    70    void
        simfac.c    71    simfac(void)
        simfac.c    72    {
        simfac.c    73            int h;
        simfac.c    74            save();
        simfac.c    75            p1 = pop();
        simfac.c    76            if (car(p1) == symbol(ADD)) {
        simfac.c    77                    h = tos;
        simfac.c    78                    p1 = cdr(p1);
        simfac.c    79                    while (p1 != symbol(NIL)) {
        simfac.c    80                            push(car(p1));
        simfac.c    81                            simfac_term();
        simfac.c    82                            p1 = cdr(p1);
        simfac.c    83                    }
        simfac.c    84                    addk(tos - h);
        simfac.c    85                    p1 = pop();
        simfac.c    86                    if (find(p1, symbol(FACTORIAL))) {
        simfac.c    87                            push(p1);
        simfac.c    88                            if (car(p1) == symbol(ADD)) {
        simfac.c    89                                    Condense();
        simfac.c    90                                    simfac_term();
        simfac.c    91                            }
        simfac.c    92                    }
        simfac.c    93            } else {
        simfac.c    94                    push(p1);
        simfac.c    95                    simfac_term();
        simfac.c    96            }
        simfac.c    97            restore();
        simfac.c    98    }
        simfac.c    99    
        simfac.c   100    #endif
        simfac.c   101    
        simfac.c   102    static void
        simfac.c   103    simfac_term(void)
    0000013C              __$simfac_term:                  ; function: simfac_term
                                                           ; frame size=24
    0000013C 2FE6                   MOV.L       R14,@-R15
    0000013E 2FD6                   MOV.L       R13,@-R15
    00000140 2FC6                   MOV.L       R12,@-R15




SH SERIES C/C++ Compiler (Ver. 6.0C)                                                                 30-Jul-2013 13:37:29  PAGE    6


SCT OFFSET   CODE       C LABEL     INSTRUCTION OPERAND    COMMENT

    00000142 2FB6                   MOV.L       R11,@-R15
    00000144 2FA6                   MOV.L       R10,@-R15
    00000146 4F22                   STS.L       PR,@-R15
        simfac.c   104    {
        simfac.c   105            int h;
        simfac.c   106    
        simfac.c   107            save();
    00000148 D326                   MOV.L       L1576+22,R3; _save
    0000014A 430B                   JSR         @R3
    0000014C 0009                   NOP
        simfac.c   108    
        simfac.c   109            p1 = pop();
    0000014E DE26                   MOV.L       L1576+26,R14; _p1
    00000150 D226                   MOV.L       L1576+30,R2; _pop
    00000152 420B                   JSR         @R2
    00000154 0009                   NOP
    00000156 6403                   MOV         R0,R4
    00000158 2E02                   MOV.L       R0,@R14
    0000015A DC25                   MOV.L       L1576+34,R12; _push
    0000015C DD1D                   MOV.L       L1576+6,R13; _symtab
    0000015E 8448                   MOV.B       @(8,R4),R0
    00000160 2008                   TST         R0,R0
    00000162 8B02                   BF          L1171
    00000164 62E2                   MOV.L       @R14,R2
    00000166 A004                   BRA         L1172
    00000168 6322                   MOV.L       @R2,R3
    0000016A              L1171:                            
    0000016A 9230                   MOV.W       L1576,R2   ; H'0570
    0000016C D119                   MOV.L       L1576+6,R1 ; _symtab
    0000016E 6312                   MOV.L       @R1,R3
    00000170 332C                   ADD         R2,R3
    00000172              L1172:                            
    00000172 922D                   MOV.W       L1576+2,R2 ; H'0384
    00000174 60D2                   MOV.L       @R13,R0
    00000176 302C                   ADD         R2,R0
    00000178 3300                   CMP/EQ      R0,R3
    0000017A 8903                   BT          L1170
        simfac.c   110    
        simfac.c   111            // if not a product of factors then done
        simfac.c   112    
        simfac.c   113            if (car(p1) != symbol(MULTIPLY)) {
        simfac.c   114                    push(p1);
    0000017C 4C0B                   JSR         @R12
    0000017E 0009                   NOP
    00000180 A04B                   BRA         L1092
    00000182 0009                   NOP
    00000184              L1170:                            
        simfac.c   115                    restore();
        simfac.c   116                    return;
        simfac.c   117            }
        simfac.c   118    
        simfac.c   119            // push all factors
        simfac.c   120    
        simfac.c   121            h = tos;
    00000184 D314                   MOV.L       L1576+10,R3; _tos
        simfac.c   122            p1 = cdr(p1);
    00000186 61E2                   MOV.L       @R14,R1




SH SERIES C/C++ Compiler (Ver. 6.0C)                                                                 30-Jul-2013 13:37:29  PAGE    7


SCT OFFSET   CODE       C LABEL     INSTRUCTION OPERAND    COMMENT

    00000188 8418                   MOV.B       @(8,R1),R0
    0000018A 2008                   TST         R0,R0
    0000018C 8F03                   BF/S        L1174
    0000018E 6A32                   MOV.L       @R3,R10
    00000190 61E2                   MOV.L       @R14,R1
    00000192 A004                   BRA         L1175
    00000194 5211                   MOV.L       @(4,R1),R2
    00000196              L1174:                            
    00000196 911A                   MOV.W       L1576,R1   ; H'0570
    00000198 D00E                   MOV.L       L1576+6,R0 ; _symtab
    0000019A 6202                   MOV.L       @R0,R2
    0000019C 321C                   ADD         R1,R2
    0000019E              L1175:                            
    0000019E 2E22                   MOV.L       R2,@R14
    000001A0 9B15                   MOV.W       L1576,R11  ; H'0570
        simfac.c   123            while (p1 != symbol(NIL)) {
    000001A2 A02C                   BRA         L1176
    000001A4 0009                   NOP
    000001A6              L1177:                            
        simfac.c   124                    push(car(p1));
    000001A6 64E2                   MOV.L       @R14,R4
    000001A8 8448                   MOV.B       @(8,R4),R0
    000001AA 2008                   TST         R0,R0
    000001AC 8B02                   BF          L1178
    000001AE 64E2                   MOV.L       @R14,R4
    000001B0 A004                   BRA         L1179
    000001B2 6442                   MOV.L       @R4,R4
    000001B4              L1178:                            
    000001B4 930B                   MOV.W       L1576,R3   ; H'0570
    000001B6 D207                   MOV.L       L1576+6,R2 ; _symtab
    000001B8 6422                   MOV.L       @R2,R4
    000001BA 343C                   ADD         R3,R4
    000001BC              L1179:                            
    000001BC 4C0B                   JSR         @R12
    000001BE 0009                   NOP
        simfac.c   125                    p1 = cdr(p1);
    000001C0 62E2                   MOV.L       @R14,R2
    000001C2 8428                   MOV.B       @(8,R2),R0
    000001C4 2008                   TST         R0,R0
    000001C6 8B15                   BF          L1180
    000001C8 62E2                   MOV.L       @R14,R2
    000001CA A017                   BRA         L1181
    000001CC 5321                   MOV.L       @(4,R2),R3
    000001CE              L1576:                            
    000001CE 0570                   .DATA.W     H'0570
    000001D0 0384                   .DATA.W     H'0384
    000001D2 0000                   .DATA.W     0
    000001D4 <00000000>             .DATA.L     _symtab
    000001D8 <00000000>             .DATA.L     _tos
    000001DC <00000000>             .DATA.L     _add_all
    000001E0 <00000000>             .DATA.L     _restore
    000001E4 <00000000>             .DATA.L     _save
    000001E8 <00000000>             .DATA.L     _p1
    000001EC <00000000>             .DATA.L     _pop
    000001F0 <00000000>             .DATA.L     _push
    000001F4              L1180:                            
    000001F4 927C                   MOV.W       L1577,R2   ; H'0570




SH SERIES C/C++ Compiler (Ver. 6.0C)                                                                 30-Jul-2013 13:37:29  PAGE    8


SCT OFFSET   CODE       C LABEL     INSTRUCTION OPERAND    COMMENT

    000001F6 D140                   MOV.L       L1577+8,R1 ; _symtab
    000001F8 6312                   MOV.L       @R1,R3
    000001FA 332C                   ADD         R2,R3
    000001FC              L1181:                            
    000001FC 2E32                   MOV.L       R3,@R14
    000001FE              L1176:                            
    000001FE 62D2                   MOV.L       @R13,R2
    00000200 63E2                   MOV.L       @R14,R3
    00000202 32BC                   ADD         R11,R2
    00000204 3320                   CMP/EQ      R2,R3
    00000206 8BCE                   BF          L1177
    00000208              L1182:                            
        simfac.c   126            }
        simfac.c   127    
        simfac.c   128            // keep trying until no more to do
        simfac.c   129    
        simfac.c   130            while (yysimfac(h))
    00000208 B00F                   BSR         __$yysimfac
    0000020A 64A3                   MOV         R10,R4
    0000020C 2008                   TST         R0,R0
    0000020E 8BFB                   BF          L1182
        simfac.c   131                    ;
        simfac.c   132    
        simfac.c   133            multiply_all_noexpand(tos - h);
    00000210 D33A                   MOV.L       L1577+12,R3; _tos
    00000212 6432                   MOV.L       @R3,R4
    00000214 D23A                   MOV.L       L1577+16,R2; _multiply_all_noexpand
    00000216 420B                   JSR         @R2
    00000218 34A8                   SUB         R10,R4
    0000021A              L1092:
        simfac.c   134    
        simfac.c   135            restore();
    0000021A 4F26                   LDS.L       @R15+,PR
    0000021C D339                   MOV.L       L1577+20,R3; _restore
    0000021E 6AF6                   MOV.L       @R15+,R10
    00000220 6BF6                   MOV.L       @R15+,R11
    00000222 6CF6                   MOV.L       @R15+,R12
    00000224 6DF6                   MOV.L       @R15+,R13
    00000226 432B                   JMP         @R3
    00000228 6EF6                   MOV.L       @R15+,R14
        simfac.c   136    }
        simfac.c   137    
        simfac.c   138    // try all pairs of factors
        simfac.c   139    
        simfac.c   140    static int
        simfac.c   141    yysimfac(int h)
    0000022A              __$yysimfac:                     ; function: yysimfac
                                                           ; frame size=60
    0000022A 2FE6                   MOV.L       R14,@-R15
    0000022C 2FD6                   MOV.L       R13,@-R15
    0000022E 2FC6                   MOV.L       R12,@-R15
    00000230 2FB6                   MOV.L       R11,@-R15
    00000232 2FA6                   MOV.L       R10,@-R15
    00000234 2F96                   MOV.L       R9,@-R15
    00000236 2F86                   MOV.L       R8,@-R15
    00000238 4F22                   STS.L       PR,@-R15
    0000023A 7FE8                   ADD         #-24,R15




SH SERIES C/C++ Compiler (Ver. 6.0C)                                                                 30-Jul-2013 13:37:29  PAGE    9


SCT OFFSET   CODE       C LABEL     INSTRUCTION OPERAND    COMMENT

        simfac.c   142    {
        simfac.c   143            int i, j;
        simfac.c   144    
        simfac.c   145            for (i = h; i < tos; i++) {
    0000023C D232                   MOV.L       L1577+24,R2; L1574
    0000023E 1F42                   MOV.L       R4,@(8,R15)
    00000240 422B                   JMP         @R2
    00000242 6343                   MOV         R4,R3
    00000244              L1185:                            
        simfac.c   146                    p1 = stack[i];
    00000244 DA31                   MOV.L       L1577+28,R10; _stack
    00000246 DC32                   MOV.L       L1577+32,R12; _p1
    00000248 59F1                   MOV.L       @(4,R15),R9
    0000024A 4908                   SHLL2       R9
    0000024C 60A2                   MOV.L       @R10,R0
    0000024E 039E                   MOV.L       @(R0,R9),R3
    00000250 2C32                   MOV.L       R3,@R12
        simfac.c   147                    for (j = h; j < tos; j++) {
    00000252 D330                   MOV.L       L1577+36,R3; L1573
    00000254 432B                   JMP         @R3
    00000256 52F2                   MOV.L       @(8,R15),R2
    00000258              L1187:                            
        simfac.c   148                            if (i == j)
    00000258 61F2                   MOV.L       @R15,R1
    0000025A 53F1                   MOV.L       @(4,R15),R3
    0000025C 3310                   CMP/EQ      R1,R3
    0000025E 8B02                   BF          L1578
    00000260 D22D                   MOV.L       L1577+40,R2; L1189
    00000262 422B                   JMP         @R2
    00000264 0009                   NOP
    00000266              L1578:                            
        simfac.c   149                                    continue;
        simfac.c   150                            p2 = stack[j];
    00000266 DE2D                   MOV.L       L1577+44,R14; _p2
    00000268 60F2                   MOV.L       @R15,R0
    0000026A 4008                   SHLL2       R0
    0000026C 63A2                   MOV.L       @R10,R3
    0000026E 023E                   MOV.L       @(R0,R3),R2
        simfac.c   151    
        simfac.c   152                            //      n! / n          ->      (n - 1)!
        simfac.c   153    
        simfac.c   154                            if (car(p1) == symbol(FACTORIAL)
        simfac.c   155                            && car(p2) == symbol(POWER)
        simfac.c   156                            && isminusone(caddr(p2))
        simfac.c   157                            && equal(cadr(p1), cadr(p2))) {
    00000270 D82B                   MOV.L       L1577+48,R8; _pop
    00000272 2E22                   MOV.L       R2,@R14
    00000274 DB2B                   MOV.L       L1577+52,R11; _push
    00000276 DD20                   MOV.L       L1577+8,R13; _symtab
    00000278 62C2                   MOV.L       @R12,R2
    0000027A 8428                   MOV.B       @(8,R2),R0
    0000027C 2008                   TST         R0,R0
    0000027E 8B02                   BF          L1191
    00000280 62C2                   MOV.L       @R12,R2
    00000282 A004                   BRA         L1206
    00000284 6322                   MOV.L       @R2,R3
    00000286              L1191:                            




SH SERIES C/C++ Compiler (Ver. 6.0C)                                                                 30-Jul-2013 13:37:29  PAGE   10


SCT OFFSET   CODE       C LABEL     INSTRUCTION OPERAND    COMMENT

    00000286 9233                   MOV.W       L1577,R2   ; H'0570
    00000288 D11B                   MOV.L       L1577+8,R1 ; _symtab
    0000028A 6312                   MOV.L       @R1,R3
    0000028C 332C                   ADD         R2,R3
    0000028E              L1206:                            
    0000028E 9230                   MOV.W       L1577+2,R2 ; H'0258
    00000290 60D2                   MOV.L       @R13,R0
    00000292 302C                   ADD         R2,R0
    00000294 3300                   CMP/EQ      R0,R3
    00000296 8901                   BT          L1579
    00000298 A0F3                   BRA         L1190
    0000029A 0009                   NOP
    0000029C              L1579:                            
    0000029C 63E2                   MOV.L       @R14,R3
    0000029E 8438                   MOV.B       @(8,R3),R0
    000002A0 2008                   TST         R0,R0
    000002A2 8B02                   BF          L1192
    000002A4 61E2                   MOV.L       @R14,R1
    000002A6 A003                   BRA         L1207
    000002A8 6112                   MOV.L       @R1,R1
    000002AA              L1192:                            
    000002AA 9321                   MOV.W       L1577,R3   ; H'0570
    000002AC 61D2                   MOV.L       @R13,R1
    000002AE 313C                   ADD         R3,R1
    000002B0              L1207:                            
    000002B0 9320                   MOV.W       L1577+4,R3 ; H'03F0
    000002B2 62D2                   MOV.L       @R13,R2
    000002B4 323C                   ADD         R3,R2
    000002B6 3120                   CMP/EQ      R2,R1
    000002B8 8901                   BT          L1580
    000002BA A0E2                   BRA         L1190
    000002BC 0009                   NOP
    000002BE              L1580:                            
    000002BE 64E2                   MOV.L       @R14,R4
    000002C0 8448                   MOV.B       @(8,R4),R0
    000002C2 2008                   TST         R0,R0
    000002C4 8B02                   BF          L1195
    000002C6 64E2                   MOV.L       @R14,R4
    000002C8 A003                   BRA         L1208
    000002CA 5441                   MOV.L       @(4,R4),R4
    000002CC              L1195:                            
    000002CC 9210                   MOV.W       L1577,R2   ; H'0570
    000002CE 64D2                   MOV.L       @R13,R4
    000002D0 342C                   ADD         R2,R4
    000002D2              L1208:                            
    000002D2 8448                   MOV.B       @(8,R4),R0
    000002D4 2008                   TST         R0,R0
    000002D6 8B27                   BF          L1194
    000002D8 64E2                   MOV.L       @R14,R4
    000002DA 8448                   MOV.B       @(8,R4),R0
    000002DC 2008                   TST         R0,R0
    000002DE 8B02                   BF          L1196
    000002E0 64E2                   MOV.L       @R14,R4
    000002E2 A003                   BRA         L1209
    000002E4 5441                   MOV.L       @(4,R4),R4
    000002E6              L1196:                            
    000002E6 9303                   MOV.W       L1577,R3   ; H'0570




SH SERIES C/C++ Compiler (Ver. 6.0C)                                                                 30-Jul-2013 13:37:29  PAGE   11


SCT OFFSET   CODE       C LABEL     INSTRUCTION OPERAND    COMMENT

    000002E8 64D2                   MOV.L       @R13,R4
    000002EA 343C                   ADD         R3,R4
    000002EC              L1209:                            
    000002EC A01F                   BRA         L1210
    000002EE 5441                   MOV.L       @(4,R4),R4
    000002F0              L1577:                            
    000002F0 0570                   .DATA.W     H'0570
    000002F2 0258                   .DATA.W     H'0258
    000002F4 03F0                   .DATA.W     H'03F0
    000002F6 0000                   .DATA.W     0
    000002F8 <00000000>             .DATA.L     _symtab
    000002FC <00000000>             .DATA.L     _tos
    00000300 <00000000>             .DATA.L     _multiply_all_noexpand
    00000304 <00000000>             .DATA.L     _restore
    00000308 <00000000>             .DATA.L     L1574
    0000030C <00000000>             .DATA.L     _stack
    00000310 <00000000>             .DATA.L     _p1
    00000314 <00000000>             .DATA.L     L1573
    00000318 <00000000>             .DATA.L     L1189
    0000031C <00000000>             .DATA.L     _p2
    00000320 <00000000>             .DATA.L     _pop
    00000324 <00000000>             .DATA.L     _push
    00000328              L1194:                            
    00000328 9367                   MOV.W       L1581,R3   ; H'0570
    0000032A 64D2                   MOV.L       @R13,R4
    0000032C 343C                   ADD         R3,R4
    0000032E              L1210:                            
    0000032E 8448                   MOV.B       @(8,R4),R0
    00000330 2008                   TST         R0,R0
    00000332 8B1D                   BF          L1193
    00000334 64E2                   MOV.L       @R14,R4
    00000336 8448                   MOV.B       @(8,R4),R0
    00000338 2008                   TST         R0,R0
    0000033A 8B02                   BF          L1198
    0000033C 64E2                   MOV.L       @R14,R4
    0000033E A003                   BRA         L1211
    00000340 5441                   MOV.L       @(4,R4),R4
    00000342              L1198:                            
    00000342 935A                   MOV.W       L1581,R3   ; H'0570
    00000344 64D2                   MOV.L       @R13,R4
    00000346 343C                   ADD         R3,R4
    00000348              L1211:                            
    00000348 8448                   MOV.B       @(8,R4),R0
    0000034A 2008                   TST         R0,R0
    0000034C 8B0B                   BF          L1197
    0000034E 64E2                   MOV.L       @R14,R4
    00000350 8448                   MOV.B       @(8,R4),R0
    00000352 2008                   TST         R0,R0
    00000354 8B02                   BF          L1199
    00000356 64E2                   MOV.L       @R14,R4
    00000358 A003                   BRA         L1212
    0000035A 5441                   MOV.L       @(4,R4),R4
    0000035C              L1199:                            
    0000035C 934D                   MOV.W       L1581,R3   ; H'0570
    0000035E 64D2                   MOV.L       @R13,R4
    00000360 343C                   ADD         R3,R4
    00000362              L1212:                            




SH SERIES C/C++ Compiler (Ver. 6.0C)                                                                 30-Jul-2013 13:37:29  PAGE   12


SCT OFFSET   CODE       C LABEL     INSTRUCTION OPERAND    COMMENT

    00000362 A003                   BRA         L1213
    00000364 5441                   MOV.L       @(4,R4),R4
    00000366              L1197:                            
    00000366 9348                   MOV.W       L1581,R3   ; H'0570
    00000368 64D2                   MOV.L       @R13,R4
    0000036A 343C                   ADD         R3,R4
    0000036C              L1213:                            
    0000036C A003                   BRA         L1214
    0000036E 6442                   MOV.L       @R4,R4
    00000370              L1193:                            
    00000370 9343                   MOV.W       L1581,R3   ; H'0570
    00000372 64D2                   MOV.L       @R13,R4
    00000374 343C                   ADD         R3,R4
    00000376              L1214:                            
    00000376 D321                   MOV.L       L1581+2,R3 ; _isminusone
    00000378 430B                   JSR         @R3
    0000037A 0009                   NOP
    0000037C 2008                   TST         R0,R0
    0000037E 8B01                   BF          L1582
    00000380 A07F                   BRA         L1190
    00000382 0009                   NOP
    00000384              L1582:                            
    00000384 D31E                   MOV.L       L1581+6,R3 ; _p2
    00000386 6532                   MOV.L       @R3,R5
    00000388 8458                   MOV.B       @(8,R5),R0
    0000038A 2008                   TST         R0,R0
    0000038C 8B02                   BF          L1201
    0000038E 6532                   MOV.L       @R3,R5
    00000390 A004                   BRA         L1215
    00000392 5551                   MOV.L       @(4,R5),R5
    00000394              L1201:                            
    00000394 9231                   MOV.W       L1581,R2   ; H'0570
    00000396 D11B                   MOV.L       L1581+10,R1; _symtab
    00000398 6512                   MOV.L       @R1,R5
    0000039A 352C                   ADD         R2,R5
    0000039C              L1215:                            
    0000039C 8458                   MOV.B       @(8,R5),R0
    0000039E 2008                   TST         R0,R0
    000003A0 8B0E                   BF          L1200
    000003A2 D317                   MOV.L       L1581+6,R3 ; _p2
    000003A4 6532                   MOV.L       @R3,R5
    000003A6 8458                   MOV.B       @(8,R5),R0
    000003A8 2008                   TST         R0,R0
    000003AA 8B03                   BF          L1202
    000003AC D314                   MOV.L       L1581+6,R3 ; _p2
    000003AE 6532                   MOV.L       @R3,R5
    000003B0 A004                   BRA         L1216
    000003B2 5551                   MOV.L       @(4,R5),R5
    000003B4              L1202:                            
    000003B4 9321                   MOV.W       L1581,R3   ; H'0570
    000003B6 D213                   MOV.L       L1581+10,R2; _symtab
    000003B8 6522                   MOV.L       @R2,R5
    000003BA 353C                   ADD         R3,R5
    000003BC              L1216:                            
    000003BC A004                   BRA         L1217
    000003BE 6552                   MOV.L       @R5,R5
    000003C0              L1200:                            




SH SERIES C/C++ Compiler (Ver. 6.0C)                                                                 30-Jul-2013 13:37:29  PAGE   13


SCT OFFSET   CODE       C LABEL     INSTRUCTION OPERAND    COMMENT

    000003C0 931B                   MOV.W       L1581,R3   ; H'0570
    000003C2 D210                   MOV.L       L1581+10,R2; _symtab
    000003C4 6522                   MOV.L       @R2,R5
    000003C6 353C                   ADD         R3,R5
    000003C8              L1217:                            
    000003C8 D30F                   MOV.L       L1581+14,R3; _p1
    000003CA 6432                   MOV.L       @R3,R4
    000003CC 8448                   MOV.B       @(8,R4),R0
    000003CE 2008                   TST         R0,R0
    000003D0 8B03                   BF          L1204
    000003D2 D30D                   MOV.L       L1581+14,R3; _p1
    000003D4 6432                   MOV.L       @R3,R4
    000003D6 A004                   BRA         L1218
    000003D8 5441                   MOV.L       @(4,R4),R4
    000003DA              L1204:                            
    000003DA 930E                   MOV.W       L1581,R3   ; H'0570
    000003DC D209                   MOV.L       L1581+10,R2; _symtab
    000003DE 6422                   MOV.L       @R2,R4
    000003E0 343C                   ADD         R3,R4
    000003E2              L1218:                            
    000003E2 8448                   MOV.B       @(8,R4),R0
    000003E4 2008                   TST         R0,R0
    000003E6 8B17                   BF          L1203
    000003E8 D307                   MOV.L       L1581+14,R3; _p1
    000003EA 6432                   MOV.L       @R3,R4
    000003EC 8448                   MOV.B       @(8,R4),R0
    000003EE 2008                   TST         R0,R0
    000003F0 8B0C                   BF          L1205
    000003F2 D305                   MOV.L       L1581+14,R3; _p1
    000003F4 6432                   MOV.L       @R3,R4
    000003F6 A00D                   BRA         L1219
    000003F8 5441                   MOV.L       @(4,R4),R4
    000003FA              L1581:                            
    000003FA 0570                   .DATA.W     H'0570
    000003FC <00000000>             .DATA.L     _isminusone
    00000400 <00000000>             .DATA.L     _p2
    00000404 <00000000>             .DATA.L     _symtab
    00000408 <00000000>             .DATA.L     _p1
    0000040C              L1205:                            
    0000040C 9363                   MOV.W       L1583,R3   ; H'0570
    0000040E D233                   MOV.L       L1583+6,R2 ; _symtab
    00000410 6422                   MOV.L       @R2,R4
    00000412 343C                   ADD         R3,R4
    00000414              L1219:                            
    00000414 A004                   BRA         L1220
    00000416 6442                   MOV.L       @R4,R4
    00000418              L1203:                            
    00000418 935D                   MOV.W       L1583,R3   ; H'0570
    0000041A D230                   MOV.L       L1583+6,R2 ; _symtab
    0000041C 6422                   MOV.L       @R2,R4
    0000041E 343C                   ADD         R3,R4
    00000420              L1220:                            
    00000420 D32F                   MOV.L       L1583+10,R3; _equal
    00000422 430B                   JSR         @R3
    00000424 0009                   NOP
    00000426 2008                   TST         R0,R0
    00000428 892B                   BT          L1190




SH SERIES C/C++ Compiler (Ver. 6.0C)                                                                 30-Jul-2013 13:37:29  PAGE   14


SCT OFFSET   CODE       C LABEL     INSTRUCTION OPERAND    COMMENT

        simfac.c   158                                    push(cadr(p1));
    0000042A 64C2                   MOV.L       @R12,R4
    0000042C 8448                   MOV.B       @(8,R4),R0
    0000042E 2008                   TST         R0,R0
    00000430 8B02                   BF          L1222
    00000432 64C2                   MOV.L       @R12,R4
    00000434 A004                   BRA         L1224
    00000436 5441                   MOV.L       @(4,R4),R4
    00000438              L1222:                            
    00000438 934D                   MOV.W       L1583,R3   ; H'0570
    0000043A D228                   MOV.L       L1583+6,R2 ; _symtab
    0000043C 6422                   MOV.L       @R2,R4
    0000043E 343C                   ADD         R3,R4
    00000440              L1224:                            
    00000440 8448                   MOV.B       @(8,R4),R0
    00000442 2008                   TST         R0,R0
    00000444 8B0C                   BF          L1221
    00000446 64C2                   MOV.L       @R12,R4
    00000448 8448                   MOV.B       @(8,R4),R0
    0000044A 2008                   TST         R0,R0
    0000044C 8B02                   BF          L1223
    0000044E 64C2                   MOV.L       @R12,R4
    00000450 A004                   BRA         L1225
    00000452 5441                   MOV.L       @(4,R4),R4
    00000454              L1223:                            
    00000454 933F                   MOV.W       L1583,R3   ; H'0570
    00000456 D221                   MOV.L       L1583+6,R2 ; _symtab
    00000458 6422                   MOV.L       @R2,R4
    0000045A 343C                   ADD         R3,R4
    0000045C              L1225:                            
    0000045C A004                   BRA         L1226
    0000045E 6442                   MOV.L       @R4,R4
    00000460              L1221:                            
    00000460 9339                   MOV.W       L1583,R3   ; H'0570
    00000462 D21E                   MOV.L       L1583+6,R2 ; _symtab
    00000464 6422                   MOV.L       @R2,R4
    00000466 343C                   ADD         R3,R4
    00000468              L1226:                            
    00000468 4B0B                   JSR         @R11
    0000046A 0009                   NOP
        simfac.c   159                                    push(one);
    0000046C D31D                   MOV.L       L1583+14,R3; _one
    0000046E 4B0B                   JSR         @R11
    00000470 6432                   MOV.L       @R3,R4
        simfac.c   160                                    subtract();
    00000472 D21D                   MOV.L       L1583+18,R2; _subtract
    00000474 420B                   JSR         @R2
    00000476 0009                   NOP
        simfac.c   161                                    factorial();
    00000478 D11C                   MOV.L       L1583+22,R1; _factorial
    0000047A 410B                   JSR         @R1
    0000047C 0009                   NOP
    0000047E A3E8                   BRA         L1570
    00000480 0009                   NOP
    00000482              L1190:                            
        simfac.c   162                                    stack[i] = pop();
        simfac.c   163                                    stack[j] = one;




SH SERIES C/C++ Compiler (Ver. 6.0C)                                                                 30-Jul-2013 13:37:29  PAGE   15


SCT OFFSET   CODE       C LABEL     INSTRUCTION OPERAND    COMMENT

        simfac.c   164                                    return 1;
        simfac.c   165                            }
        simfac.c   166    
        simfac.c   167                            //      n / n!          ->      1 / (n - 1)!
        simfac.c   168                            {
        simfac.c   169                                    int a,b,c,d;
        simfac.c   170                                    a = car(p2) == symbol(POWER);
    00000482 62E2                   MOV.L       @R14,R2
    00000484 8428                   MOV.B       @(8,R2),R0
    00000486 2008                   TST         R0,R0
    00000488 8B02                   BF          L1228
    0000048A 62E2                   MOV.L       @R14,R2
    0000048C A004                   BRA         L1229
    0000048E 6322                   MOV.L       @R2,R3
    00000490              L1228:                            
    00000490 9221                   MOV.W       L1583,R2   ; H'0570
    00000492 D112                   MOV.L       L1583+6,R1 ; _symtab
    00000494 6312                   MOV.L       @R1,R3
    00000496 332C                   ADD         R2,R3
    00000498              L1229:                            
    00000498 921E                   MOV.W       L1583+2,R2 ; H'03F0
    0000049A 60D2                   MOV.L       @R13,R0
    0000049C 302C                   ADD         R2,R0
    0000049E 3300                   CMP/EQ      R0,R3
    000004A0 0029                   MOVT        R0
    000004A2 1F04                   MOV.L       R0,@(16,R15)
        simfac.c   171                                    b = isminusone(caddr(p2));
    000004A4 64E2                   MOV.L       @R14,R4
    000004A6 8448                   MOV.B       @(8,R4),R0
    000004A8 2008                   TST         R0,R0
    000004AA 8B02                   BF          L1232
    000004AC 64E2                   MOV.L       @R14,R4
    000004AE A003                   BRA         L1237
    000004B0 5441                   MOV.L       @(4,R4),R4
    000004B2              L1232:                            
    000004B2 9310                   MOV.W       L1583,R3   ; H'0570
    000004B4 64D2                   MOV.L       @R13,R4
    000004B6 343C                   ADD         R3,R4
    000004B8              L1237:                            
    000004B8 8448                   MOV.B       @(8,R4),R0
    000004BA 2008                   TST         R0,R0
    000004BC 8B18                   BF          L1231
    000004BE 64E2                   MOV.L       @R14,R4
    000004C0 8448                   MOV.B       @(8,R4),R0
    000004C2 2008                   TST         R0,R0
    000004C4 8B02                   BF          L1233
    000004C6 64E2                   MOV.L       @R14,R4
    000004C8 A003                   BRA         L1238
    000004CA 5441                   MOV.L       @(4,R4),R4
    000004CC              L1233:                            
    000004CC 9303                   MOV.W       L1583,R3   ; H'0570
    000004CE 64D2                   MOV.L       @R13,R4
    000004D0 343C                   ADD         R3,R4
    000004D2              L1238:                            
    000004D2 A010                   BRA         L1239
    000004D4 5441                   MOV.L       @(4,R4),R4
    000004D6              L1583:                            




SH SERIES C/C++ Compiler (Ver. 6.0C)                                                                 30-Jul-2013 13:37:29  PAGE   16


SCT OFFSET   CODE       C LABEL     INSTRUCTION OPERAND    COMMENT

    000004D6 0570                   .DATA.W     H'0570
    000004D8 03F0                   .DATA.W     H'03F0
    000004DA 0000                   .DATA.W     0
    000004DC <00000000>             .DATA.L     _symtab
    000004E0 <00000000>             .DATA.L     _equal
    000004E4 <00000000>             .DATA.L     _one
    000004E8 <00000000>             .DATA.L     _subtract
    000004EC <00000000>             .DATA.L     _factorial
    000004F0              L1231:                            
    000004F0 9366                   MOV.W       L1584,R3   ; H'0570
    000004F2 64D2                   MOV.L       @R13,R4
    000004F4 343C                   ADD         R3,R4
    000004F6              L1239:                            
    000004F6 8448                   MOV.B       @(8,R4),R0
    000004F8 2008                   TST         R0,R0
    000004FA 8B1D                   BF          L1230
    000004FC 64E2                   MOV.L       @R14,R4
    000004FE 8448                   MOV.B       @(8,R4),R0
    00000500 2008                   TST         R0,R0
    00000502 8B02                   BF          L1235
    00000504 64E2                   MOV.L       @R14,R4
    00000506 A003                   BRA         L1240
    00000508 5441                   MOV.L       @(4,R4),R4
    0000050A              L1235:                            
    0000050A 9359                   MOV.W       L1584,R3   ; H'0570
    0000050C 64D2                   MOV.L       @R13,R4
    0000050E 343C                   ADD         R3,R4
    00000510              L1240:                            
    00000510 8448                   MOV.B       @(8,R4),R0
    00000512 2008                   TST         R0,R0
    00000514 8B0B                   BF          L1234
    00000516 64E2                   MOV.L       @R14,R4
    00000518 8448                   MOV.B       @(8,R4),R0
    0000051A 2008                   TST         R0,R0
    0000051C 8B02                   BF          L1236
    0000051E 64E2                   MOV.L       @R14,R4
    00000520 A003                   BRA         L1241
    00000522 5441                   MOV.L       @(4,R4),R4
    00000524              L1236:                            
    00000524 934C                   MOV.W       L1584,R3   ; H'0570
    00000526 64D2                   MOV.L       @R13,R4
    00000528 343C                   ADD         R3,R4
    0000052A              L1241:                            
    0000052A A003                   BRA         L1242
    0000052C 5441                   MOV.L       @(4,R4),R4
    0000052E              L1234:                            
    0000052E 9347                   MOV.W       L1584,R3   ; H'0570
    00000530 64D2                   MOV.L       @R13,R4
    00000532 343C                   ADD         R3,R4
    00000534              L1242:                            
    00000534 A003                   BRA         L1243
    00000536 6442                   MOV.L       @R4,R4
    00000538              L1230:                            
    00000538 9342                   MOV.W       L1584,R3   ; H'0570
    0000053A 64D2                   MOV.L       @R13,R4
    0000053C 343C                   ADD         R3,R4
    0000053E              L1243:                            




SH SERIES C/C++ Compiler (Ver. 6.0C)                                                                 30-Jul-2013 13:37:29  PAGE   17


SCT OFFSET   CODE       C LABEL     INSTRUCTION OPERAND    COMMENT

    0000053E D321                   MOV.L       L1584+4,R3 ; _isminusone
    00000540 430B                   JSR         @R3
    00000542 0009                   NOP
    00000544 1F05                   MOV.L       R0,@(20,R15)
        simfac.c   172                                    c = caadr(p2) == symbol(FACTORIAL);
    00000546 62E2                   MOV.L       @R14,R2
    00000548 8428                   MOV.B       @(8,R2),R0
    0000054A 2008                   TST         R0,R0
    0000054C 8B02                   BF          L1246
    0000054E 62E2                   MOV.L       @R14,R2
    00000550 A004                   BRA         L1251
    00000552 5321                   MOV.L       @(4,R2),R3
    00000554              L1246:                            
    00000554 9234                   MOV.W       L1584,R2   ; H'0570
    00000556 D11C                   MOV.L       L1584+8,R1 ; _symtab
    00000558 6312                   MOV.L       @R1,R3
    0000055A 332C                   ADD         R2,R3
    0000055C              L1251:                            
    0000055C 8438                   MOV.B       @(8,R3),R0
    0000055E 2008                   TST         R0,R0
    00000560 8B0C                   BF          L1245
    00000562 63E2                   MOV.L       @R14,R3
    00000564 8438                   MOV.B       @(8,R3),R0
    00000566 2008                   TST         R0,R0
    00000568 8B02                   BF          L1247
    0000056A 62E2                   MOV.L       @R14,R2
    0000056C A004                   BRA         L1252
    0000056E 5221                   MOV.L       @(4,R2),R2
    00000570              L1247:                            
    00000570 9326                   MOV.W       L1584,R3   ; H'0570
    00000572 D115                   MOV.L       L1584+8,R1 ; _symtab
    00000574 6212                   MOV.L       @R1,R2
    00000576 323C                   ADD         R3,R2
    00000578              L1252:                            
    00000578 A004                   BRA         L1253
    0000057A 6222                   MOV.L       @R2,R2
    0000057C              L1245:                            
    0000057C 9320                   MOV.W       L1584,R3   ; H'0570
    0000057E D112                   MOV.L       L1584+8,R1 ; _symtab
    00000580 6212                   MOV.L       @R1,R2
    00000582 323C                   ADD         R3,R2
    00000584              L1253:                            
    00000584 8428                   MOV.B       @(8,R2),R0
    00000586 2008                   TST         R0,R0
    00000588 8B26                   BF          L1244
    0000058A 62E2                   MOV.L       @R14,R2
    0000058C 8428                   MOV.B       @(8,R2),R0
    0000058E 2008                   TST         R0,R0
    00000590 8B02                   BF          L1249
    00000592 62E2                   MOV.L       @R14,R2
    00000594 A004                   BRA         L1254
    00000596 5321                   MOV.L       @(4,R2),R3
    00000598              L1249:                            
    00000598 9212                   MOV.W       L1584,R2   ; H'0570
    0000059A D10B                   MOV.L       L1584+8,R1 ; _symtab
    0000059C 6312                   MOV.L       @R1,R3
    0000059E 332C                   ADD         R2,R3




SH SERIES C/C++ Compiler (Ver. 6.0C)                                                                 30-Jul-2013 13:37:29  PAGE   18


SCT OFFSET   CODE       C LABEL     INSTRUCTION OPERAND    COMMENT

    000005A0              L1254:                            
    000005A0 8438                   MOV.B       @(8,R3),R0
    000005A2 2008                   TST         R0,R0
    000005A4 8B12                   BF          L1248
    000005A6 63E2                   MOV.L       @R14,R3
    000005A8 8438                   MOV.B       @(8,R3),R0
    000005AA 2008                   TST         R0,R0
    000005AC 8B02                   BF          L1250
    000005AE 62E2                   MOV.L       @R14,R2
    000005B0 A004                   BRA         L1255
    000005B2 5221                   MOV.L       @(4,R2),R2
    000005B4              L1250:                            
    000005B4 9304                   MOV.W       L1584,R3   ; H'0570
    000005B6 D104                   MOV.L       L1584+8,R1 ; _symtab
    000005B8 6212                   MOV.L       @R1,R2
    000005BA 323C                   ADD         R3,R2
    000005BC              L1255:                            
    000005BC A00A                   BRA         L1256
    000005BE 6222                   MOV.L       @R2,R2
    000005C0              L1584:                            
    000005C0 0570                   .DATA.W     H'0570
    000005C2 0000                   .DATA.W     0
    000005C4 <00000000>             .DATA.L     _isminusone
    000005C8 <00000000>             .DATA.L     _symtab
    000005CC              L1248:                            
    000005CC 936A                   MOV.W       L1585,R3   ; H'0570
    000005CE D136                   MOV.L       L1585+4,R1 ; _symtab
    000005D0 6212                   MOV.L       @R1,R2
    000005D2 323C                   ADD         R3,R2
    000005D4              L1256:                            
    000005D4 A004                   BRA         L1257
    000005D6 6322                   MOV.L       @R2,R3
    000005D8              L1244:                            
    000005D8 9264                   MOV.W       L1585,R2   ; H'0570
    000005DA D133                   MOV.L       L1585+4,R1 ; _symtab
    000005DC 6312                   MOV.L       @R1,R3
    000005DE 332C                   ADD         R2,R3
    000005E0              L1257:                            
    000005E0 9261                   MOV.W       L1585+2,R2 ; H'0258
    000005E2 60D2                   MOV.L       @R13,R0
    000005E4 302C                   ADD         R2,R0
    000005E6 3300                   CMP/EQ      R0,R3
    000005E8 0029                   MOVT        R0
    000005EA 1F03                   MOV.L       R0,@(12,R15)
        simfac.c   173                                    d = equal(p1, cadadr(p2));
    000005EC 65E2                   MOV.L       @R14,R5
    000005EE 8458                   MOV.B       @(8,R5),R0
    000005F0 2008                   TST         R0,R0
    000005F2 8B02                   BF          L1261
    000005F4 65E2                   MOV.L       @R14,R5
    000005F6 A003                   BRA         L1273
    000005F8 5551                   MOV.L       @(4,R5),R5
    000005FA              L1261:                            
    000005FA 9353                   MOV.W       L1585,R3   ; H'0570
    000005FC 65D2                   MOV.L       @R13,R5
    000005FE 353C                   ADD         R3,R5
    00000600              L1273:                            




SH SERIES C/C++ Compiler (Ver. 6.0C)                                                                 30-Jul-2013 13:37:29  PAGE   19


SCT OFFSET   CODE       C LABEL     INSTRUCTION OPERAND    COMMENT

    00000600 8458                   MOV.B       @(8,R5),R0
    00000602 2008                   TST         R0,R0
    00000604 8B0B                   BF          L1260
    00000606 65E2                   MOV.L       @R14,R5
    00000608 8458                   MOV.B       @(8,R5),R0
    0000060A 2008                   TST         R0,R0
    0000060C 8B02                   BF          L1262
    0000060E 65E2                   MOV.L       @R14,R5
    00000610 A003                   BRA         L1274
    00000612 5551                   MOV.L       @(4,R5),R5
    00000614              L1262:                            
    00000614 9346                   MOV.W       L1585,R3   ; H'0570
    00000616 65D2                   MOV.L       @R13,R5
    00000618 353C                   ADD         R3,R5
    0000061A              L1274:                            
    0000061A A003                   BRA         L1275
    0000061C 6552                   MOV.L       @R5,R5
    0000061E              L1260:                            
    0000061E 9341                   MOV.W       L1585,R3   ; H'0570
    00000620 65D2                   MOV.L       @R13,R5
    00000622 353C                   ADD         R3,R5
    00000624              L1275:                            
    00000624 8458                   MOV.B       @(8,R5),R0
    00000626 2008                   TST         R0,R0
    00000628 8B1D                   BF          L1259
    0000062A 65E2                   MOV.L       @R14,R5
    0000062C 8458                   MOV.B       @(8,R5),R0
    0000062E 2008                   TST         R0,R0
    00000630 8B02                   BF          L1264
    00000632 65E2                   MOV.L       @R14,R5
    00000634 A003                   BRA         L1276
    00000636 5551                   MOV.L       @(4,R5),R5
    00000638              L1264:                            
    00000638 9334                   MOV.W       L1585,R3   ; H'0570
    0000063A 65D2                   MOV.L       @R13,R5
    0000063C 353C                   ADD         R3,R5
    0000063E              L1276:                            
    0000063E 8458                   MOV.B       @(8,R5),R0
    00000640 2008                   TST         R0,R0
    00000642 8B0B                   BF          L1263
    00000644 65E2                   MOV.L       @R14,R5
    00000646 8458                   MOV.B       @(8,R5),R0
    00000648 2008                   TST         R0,R0
    0000064A 8B02                   BF          L1265
    0000064C 65E2                   MOV.L       @R14,R5
    0000064E A003                   BRA         L1277
    00000650 5551                   MOV.L       @(4,R5),R5
    00000652              L1265:                            
    00000652 9327                   MOV.W       L1585,R3   ; H'0570
    00000654 65D2                   MOV.L       @R13,R5
    00000656 353C                   ADD         R3,R5
    00000658              L1277:                            
    00000658 A003                   BRA         L1278
    0000065A 6552                   MOV.L       @R5,R5
    0000065C              L1263:                            
    0000065C 9322                   MOV.W       L1585,R3   ; H'0570
    0000065E 65D2                   MOV.L       @R13,R5




SH SERIES C/C++ Compiler (Ver. 6.0C)                                                                 30-Jul-2013 13:37:29  PAGE   20


SCT OFFSET   CODE       C LABEL     INSTRUCTION OPERAND    COMMENT

    00000660 353C                   ADD         R3,R5
    00000662              L1278:                            
    00000662 A003                   BRA         L1279
    00000664 5551                   MOV.L       @(4,R5),R5
    00000666              L1259:                            
    00000666 931D                   MOV.W       L1585,R3   ; H'0570
    00000668 65D2                   MOV.L       @R13,R5
    0000066A 353C                   ADD         R3,R5
    0000066C              L1279:                            
    0000066C 8458                   MOV.B       @(8,R5),R0
    0000066E 2008                   TST         R0,R0
    00000670 8B45                   BF          L1258
    00000672 65E2                   MOV.L       @R14,R5
    00000674 8458                   MOV.B       @(8,R5),R0
    00000676 2008                   TST         R0,R0
    00000678 8B02                   BF          L1268
    0000067A 65E2                   MOV.L       @R14,R5
    0000067C A003                   BRA         L1280
    0000067E 5551                   MOV.L       @(4,R5),R5
    00000680              L1268:                            
    00000680 9310                   MOV.W       L1585,R3   ; H'0570
    00000682 65D2                   MOV.L       @R13,R5
    00000684 353C                   ADD         R3,R5
    00000686              L1280:                            
    00000686 8458                   MOV.B       @(8,R5),R0
    00000688 2008                   TST         R0,R0
    0000068A 8B0F                   BF          L1267
    0000068C 65E2                   MOV.L       @R14,R5
    0000068E 8458                   MOV.B       @(8,R5),R0
    00000690 2008                   TST         R0,R0
    00000692 8B02                   BF          L1269
    00000694 65E2                   MOV.L       @R14,R5
    00000696 A003                   BRA         L1281
    00000698 5551                   MOV.L       @(4,R5),R5
    0000069A              L1269:                            
    0000069A 9303                   MOV.W       L1585,R3   ; H'0570
    0000069C 65D2                   MOV.L       @R13,R5
    0000069E 353C                   ADD         R3,R5
    000006A0              L1281:                            
    000006A0 A007                   BRA         L1282
    000006A2 6552                   MOV.L       @R5,R5
    000006A4              L1585:                            
    000006A4 0570                   .DATA.W     H'0570
    000006A6 0258                   .DATA.W     H'0258
    000006A8 <00000000>             .DATA.L     _symtab
    000006AC              L1267:                            
    000006AC 9367                   MOV.W       L1586,R3   ; H'0570
    000006AE 65D2                   MOV.L       @R13,R5
    000006B0 353C                   ADD         R3,R5
    000006B2              L1282:                            
    000006B2 8458                   MOV.B       @(8,R5),R0
    000006B4 2008                   TST         R0,R0
    000006B6 8B1D                   BF          L1266
    000006B8 65E2                   MOV.L       @R14,R5
    000006BA 8458                   MOV.B       @(8,R5),R0
    000006BC 2008                   TST         R0,R0
    000006BE 8B02                   BF          L1271




SH SERIES C/C++ Compiler (Ver. 6.0C)                                                                 30-Jul-2013 13:37:29  PAGE   21


SCT OFFSET   CODE       C LABEL     INSTRUCTION OPERAND    COMMENT

    000006C0 65E2                   MOV.L       @R14,R5
    000006C2 A003                   BRA         L1283
    000006C4 5551                   MOV.L       @(4,R5),R5
    000006C6              L1271:                            
    000006C6 935A                   MOV.W       L1586,R3   ; H'0570
    000006C8 65D2                   MOV.L       @R13,R5
    000006CA 353C                   ADD         R3,R5
    000006CC              L1283:                            
    000006CC 8458                   MOV.B       @(8,R5),R0
    000006CE 2008                   TST         R0,R0
    000006D0 8B0B                   BF          L1270
    000006D2 65E2                   MOV.L       @R14,R5
    000006D4 8458                   MOV.B       @(8,R5),R0
    000006D6 2008                   TST         R0,R0
    000006D8 8B02                   BF          L1272
    000006DA 65E2                   MOV.L       @R14,R5
    000006DC A003                   BRA         L1284
    000006DE 5551                   MOV.L       @(4,R5),R5
    000006E0              L1272:                            
    000006E0 934D                   MOV.W       L1586,R3   ; H'0570
    000006E2 65D2                   MOV.L       @R13,R5
    000006E4 353C                   ADD         R3,R5
    000006E6              L1284:                            
    000006E6 A003                   BRA         L1285
    000006E8 6552                   MOV.L       @R5,R5
    000006EA              L1270:                            
    000006EA 9348                   MOV.W       L1586,R3   ; H'0570
    000006EC 65D2                   MOV.L       @R13,R5
    000006EE 353C                   ADD         R3,R5
    000006F0              L1285:                            
    000006F0 A003                   BRA         L1286
    000006F2 5551                   MOV.L       @(4,R5),R5
    000006F4              L1266:                            
    000006F4 9343                   MOV.W       L1586,R3   ; H'0570
    000006F6 65D2                   MOV.L       @R13,R5
    000006F8 353C                   ADD         R3,R5
    000006FA              L1286:                            
    000006FA A003                   BRA         L1287
    000006FC 6552                   MOV.L       @R5,R5
    000006FE              L1258:                            
    000006FE 933E                   MOV.W       L1586,R3   ; H'0570
    00000700 65D2                   MOV.L       @R13,R5
    00000702 353C                   ADD         R3,R5
    00000704              L1287:                            
    00000704 D31F                   MOV.L       L1586+6,R3 ; _equal
    00000706 430B                   JSR         @R3
    00000708 64C2                   MOV.L       @R12,R4
    0000070A 6503                   MOV         R0,R5
    0000070C 52F4                   MOV.L       @(16,R15),R2
    0000070E 2228                   TST         R2,R2
    00000710 8D1D                   BT/S        L1288
    00000712 64C2                   MOV.L       @R12,R4
    00000714 53F5                   MOV.L       @(20,R15),R3
    00000716 2338                   TST         R3,R3
    00000718 8919                   BT          L1288
    0000071A 53F3                   MOV.L       @(12,R15),R3
    0000071C 2338                   TST         R3,R3




SH SERIES C/C++ Compiler (Ver. 6.0C)                                                                 30-Jul-2013 13:37:29  PAGE   22


SCT OFFSET   CODE       C LABEL     INSTRUCTION OPERAND    COMMENT

    0000071E 8916                   BT          L1288
    00000720 2558                   TST         R5,R5
    00000722 8914                   BT          L1288
        simfac.c   174                                    if ( a
        simfac.c   175                                    && b
        simfac.c   176                                    && c
        simfac.c   177                                    && d){
        simfac.c   178                                            push(p1);
    00000724 4B0B                   JSR         @R11
    00000726 0009                   NOP
        simfac.c   179                                            push_integer(-1);
    00000728 D217                   MOV.L       L1586+10,R2; _push_integer
    0000072A 420B                   JSR         @R2
    0000072C E4FF                   MOV         #-1,R4
        simfac.c   180                                            add();
    0000072E D317                   MOV.L       L1586+14,R3; _add
    00000730 430B                   JSR         @R3
    00000732 0009                   NOP
        simfac.c   181                                            factorial();
    00000734 D216                   MOV.L       L1586+18,R2; _factorial
    00000736 420B                   JSR         @R2
    00000738 0009                   NOP
        simfac.c   182                                            reciprocate();
    0000073A D316                   MOV.L       L1586+22,R3; _reciprocate
    0000073C 430B                   JSR         @R3
    0000073E 0009                   NOP
    00000740              L1571:                            
        simfac.c   183                                            stack[i] = pop();
    00000740 60A2                   MOV.L       @R10,R0
    00000742 309C                   ADD         R9,R0
    00000744 480B                   JSR         @R8
    00000746 2F06                   MOV.L       R0,@-R15
    00000748 62F6                   MOV.L       @R15+,R2
    0000074A A51C                   BRA         L1104
    0000074C 2202                   MOV.L       R0,@R2
    0000074E              L1288:                            
    0000074E 65E2                   MOV.L       @R14,R5
    00000750 8458                   MOV.B       @(8,R5),R0
    00000752 2008                   TST         R0,R0
    00000754 8B01                   BF          L1290
    00000756 A004                   BRA         L1291
    00000758 6352                   MOV.L       @R5,R3
    0000075A              L1290:                            
    0000075A 9210                   MOV.W       L1586,R2   ; H'0570
    0000075C D10E                   MOV.L       L1586+26,R1; _symtab
    0000075E 6312                   MOV.L       @R1,R3
    00000760 332C                   ADD         R2,R3
    00000762              L1291:                            
    00000762 920D                   MOV.W       L1586+2,R2 ; H'0258
    00000764 60D2                   MOV.L       @R13,R0
    00000766 302C                   ADD         R2,R0
    00000768 3300                   CMP/EQ      R0,R3
    0000076A 8B44                   BF          L1289
        simfac.c   184                                            stack[j] = one;
        simfac.c   185                                            return 1;
        simfac.c   186                                    }
        simfac.c   187                            }




SH SERIES C/C++ Compiler (Ver. 6.0C)                                                                 30-Jul-2013 13:37:29  PAGE   23


SCT OFFSET   CODE       C LABEL     INSTRUCTION OPERAND    COMMENT

        simfac.c   188                            //      (n + 1) n!      ->      (n + 1)!
        simfac.c   189    
        simfac.c   190                            if (car(p2) == symbol(FACTORIAL)) {
        simfac.c   191                                    push(p1);
    0000076C 4B0B                   JSR         @R11
    0000076E 0009                   NOP
        simfac.c   192                                    push(cadr(p2));
    00000770 64E2                   MOV.L       @R14,R4
    00000772 8448                   MOV.B       @(8,R4),R0
    00000774 2008                   TST         R0,R0
    00000776 8B11                   BF          L1293
    00000778 64E2                   MOV.L       @R14,R4
    0000077A A013                   BRA         L1295
    0000077C 5441                   MOV.L       @(4,R4),R4
    0000077E              L1586:                            
    0000077E 0570                   .DATA.W     H'0570
    00000780 0258                   .DATA.W     H'0258
    00000782 0000                   .DATA.W     0
    00000784 <00000000>             .DATA.L     _equal
    00000788 <00000000>             .DATA.L     _push_integer
    0000078C <00000000>             .DATA.L     _add
    00000790 <00000000>             .DATA.L     _factorial
    00000794 <00000000>             .DATA.L     _reciprocate
    00000798 <00000000>             .DATA.L     _symtab
    0000079C              L1293:                            
    0000079C 9363                   MOV.W       L1587,R3   ; H'0570
    0000079E D233                   MOV.L       L1587+6,R2 ; _symtab
    000007A0 6422                   MOV.L       @R2,R4
    000007A2 343C                   ADD         R3,R4
    000007A4              L1295:                            
    000007A4 8448                   MOV.B       @(8,R4),R0
    000007A6 2008                   TST         R0,R0
    000007A8 8B0C                   BF          L1292
    000007AA 64E2                   MOV.L       @R14,R4
    000007AC 8448                   MOV.B       @(8,R4),R0
    000007AE 2008                   TST         R0,R0
    000007B0 8B02                   BF          L1294
    000007B2 64E2                   MOV.L       @R14,R4
    000007B4 A004                   BRA         L1296
    000007B6 5441                   MOV.L       @(4,R4),R4
    000007B8              L1294:                            
    000007B8 9355                   MOV.W       L1587,R3   ; H'0570
    000007BA D22C                   MOV.L       L1587+6,R2 ; _symtab
    000007BC 6422                   MOV.L       @R2,R4
    000007BE 343C                   ADD         R3,R4
    000007C0              L1296:                            
    000007C0 A004                   BRA         L1297
    000007C2 6442                   MOV.L       @R4,R4
    000007C4              L1292:                            
    000007C4 934F                   MOV.W       L1587,R3   ; H'0570
    000007C6 D229                   MOV.L       L1587+6,R2 ; _symtab
    000007C8 6422                   MOV.L       @R2,R4
    000007CA 343C                   ADD         R3,R4
    000007CC              L1297:                            
    000007CC 4B0B                   JSR         @R11
    000007CE 0009                   NOP
        simfac.c   193                                    subtract();




SH SERIES C/C++ Compiler (Ver. 6.0C)                                                                 30-Jul-2013 13:37:29  PAGE   24


SCT OFFSET   CODE       C LABEL     INSTRUCTION OPERAND    COMMENT

    000007D0 D327                   MOV.L       L1587+10,R3; _subtract
    000007D2 430B                   JSR         @R3
    000007D4 0009                   NOP
        simfac.c   194                                    p3 = pop();
    000007D6 480B                   JSR         @R8
    000007D8 0009                   NOP
    000007DA D226                   MOV.L       L1587+14,R2; _p3
        simfac.c   195                                    if (isplusone(p3)) {
    000007DC D326                   MOV.L       L1587+18,R3; _isplusone
    000007DE 2202                   MOV.L       R0,@R2
    000007E0 430B                   JSR         @R3
    000007E2 6403                   MOV         R0,R4
    000007E4 2008                   TST         R0,R0
    000007E6 8906                   BT          L1289
        simfac.c   196                                            push(p1);
    000007E8 4B0B                   JSR         @R11
    000007EA 64C2                   MOV.L       @R12,R4
        simfac.c   197                                            factorial();
    000007EC D323                   MOV.L       L1587+22,R3; _factorial
    000007EE 430B                   JSR         @R3
    000007F0 0009                   NOP
    000007F2 AFA5                   BRA         L1571
    000007F4 0009                   NOP
    000007F6              L1289:                            
        simfac.c   198                                            stack[i] = pop();
        simfac.c   199                                            stack[j] = one;
        simfac.c   200                                            return 1;
        simfac.c   201                                    }
        simfac.c   202                            }
        simfac.c   203    
        simfac.c   204                            //      1 / ((n + 1) n!)        ->      1 / (n + 1)!
        simfac.c   205    
        simfac.c   206                            if (car(p1) == symbol(POWER)
        simfac.c   207                            && isminusone(caddr(p1))
        simfac.c   208                            && car(p2) == symbol(POWER)
        simfac.c   209                            && isminusone(caddr(p2))
        simfac.c   210                            && caadr(p2) == symbol(FACTORIAL)) {
    000007F6 63C2                   MOV.L       @R12,R3
    000007F8 8438                   MOV.B       @(8,R3),R0
    000007FA 2008                   TST         R0,R0
    000007FC 8B02                   BF          L1300
    000007FE 62C2                   MOV.L       @R12,R2
    00000800 A004                   BRA         L1323
    00000802 6222                   MOV.L       @R2,R2
    00000804              L1300:                            
    00000804 932F                   MOV.W       L1587,R3   ; H'0570
    00000806 D119                   MOV.L       L1587+6,R1 ; _symtab
    00000808 6212                   MOV.L       @R1,R2
    0000080A 323C                   ADD         R3,R2
    0000080C              L1323:                            
    0000080C 932C                   MOV.W       L1587+2,R3 ; H'03F0
    0000080E 60D2                   MOV.L       @R13,R0
    00000810 303C                   ADD         R3,R0
    00000812 3200                   CMP/EQ      R0,R2
    00000814 8901                   BT          L1588
    00000816 A223                   BRA         L1299
    00000818 0009                   NOP




SH SERIES C/C++ Compiler (Ver. 6.0C)                                                                 30-Jul-2013 13:37:29  PAGE   25


SCT OFFSET   CODE       C LABEL     INSTRUCTION OPERAND    COMMENT

    0000081A              L1588:                            
    0000081A 64C2                   MOV.L       @R12,R4
    0000081C 8448                   MOV.B       @(8,R4),R0
    0000081E 2008                   TST         R0,R0
    00000820 8B02                   BF          L1303
    00000822 64C2                   MOV.L       @R12,R4
    00000824 A003                   BRA         L1324
    00000826 5441                   MOV.L       @(4,R4),R4
    00000828              L1303:                            
    00000828 921D                   MOV.W       L1587,R2   ; H'0570
    0000082A 64D2                   MOV.L       @R13,R4
    0000082C 342C                   ADD         R2,R4
    0000082E              L1324:                            
    0000082E 8448                   MOV.B       @(8,R4),R0
    00000830 2008                   TST         R0,R0
    00000832 8B0B                   BF          L1302
    00000834 64C2                   MOV.L       @R12,R4
    00000836 8448                   MOV.B       @(8,R4),R0
    00000838 2008                   TST         R0,R0
    0000083A 8B02                   BF          L1304
    0000083C 64C2                   MOV.L       @R12,R4
    0000083E A003                   BRA         L1325
    00000840 5441                   MOV.L       @(4,R4),R4
    00000842              L1304:                            
    00000842 9310                   MOV.W       L1587,R3   ; H'0570
    00000844 64D2                   MOV.L       @R13,R4
    00000846 343C                   ADD         R3,R4
    00000848              L1325:                            
    00000848 A003                   BRA         L1326
    0000084A 5441                   MOV.L       @(4,R4),R4
    0000084C              L1302:                            
    0000084C 930B                   MOV.W       L1587,R3   ; H'0570
    0000084E 64D2                   MOV.L       @R13,R4
    00000850 343C                   ADD         R3,R4
    00000852              L1326:                            
    00000852 8448                   MOV.B       @(8,R4),R0
    00000854 2008                   TST         R0,R0
    00000856 8B2A                   BF          L1301
    00000858 64C2                   MOV.L       @R12,R4
    0000085A 8448                   MOV.B       @(8,R4),R0
    0000085C 2008                   TST         R0,R0
    0000085E 8B0F                   BF          L1306
    00000860 64C2                   MOV.L       @R12,R4
    00000862 A010                   BRA         L1327
    00000864 5441                   MOV.L       @(4,R4),R4
    00000866              L1587:                            
    00000866 0570                   .DATA.W     H'0570
    00000868 03F0                   .DATA.W     H'03F0
    0000086A 0000                   .DATA.W     0
    0000086C <00000000>             .DATA.L     _symtab
    00000870 <00000000>             .DATA.L     _subtract
    00000874 <00000000>             .DATA.L     _p3
    00000878 <00000000>             .DATA.L     _isplusone
    0000087C <00000000>             .DATA.L     _factorial
    00000880              L1306:                            
    00000880 9363                   MOV.W       L1589,R3   ; H'0570
    00000882 64D2                   MOV.L       @R13,R4




SH SERIES C/C++ Compiler (Ver. 6.0C)                                                                 30-Jul-2013 13:37:29  PAGE   26


SCT OFFSET   CODE       C LABEL     INSTRUCTION OPERAND    COMMENT

    00000884 343C                   ADD         R3,R4
    00000886              L1327:                            
    00000886 8448                   MOV.B       @(8,R4),R0
    00000888 2008                   TST         R0,R0
    0000088A 8B0B                   BF          L1305
    0000088C 64C2                   MOV.L       @R12,R4
    0000088E 8448                   MOV.B       @(8,R4),R0
    00000890 2008                   TST         R0,R0
    00000892 8B02                   BF          L1307
    00000894 64C2                   MOV.L       @R12,R4
    00000896 A003                   BRA         L1328
    00000898 5441                   MOV.L       @(4,R4),R4
    0000089A              L1307:                            
    0000089A 9356                   MOV.W       L1589,R3   ; H'0570
    0000089C 64D2                   MOV.L       @R13,R4
    0000089E 343C                   ADD         R3,R4
    000008A0              L1328:                            
    000008A0 A003                   BRA         L1329
    000008A2 5441                   MOV.L       @(4,R4),R4
    000008A4              L1305:                            
    000008A4 9351                   MOV.W       L1589,R3   ; H'0570
    000008A6 64D2                   MOV.L       @R13,R4
    000008A8 343C                   ADD         R3,R4
    000008AA              L1329:                            
    000008AA A003                   BRA         L1330
    000008AC 6442                   MOV.L       @R4,R4
    000008AE              L1301:                            
    000008AE 934C                   MOV.W       L1589,R3   ; H'0570
    000008B0 64D2                   MOV.L       @R13,R4
    000008B2 343C                   ADD         R3,R4
    000008B4              L1330:                            
    000008B4 D326                   MOV.L       L1589+6,R3 ; _isminusone
    000008B6 430B                   JSR         @R3
    000008B8 0009                   NOP
    000008BA 2008                   TST         R0,R0
    000008BC 8B01                   BF          L1590
    000008BE A1CF                   BRA         L1299
    000008C0 0009                   NOP
    000008C2              L1590:                            
    000008C2 D324                   MOV.L       L1589+10,R3; _p2
    000008C4 6232                   MOV.L       @R3,R2
    000008C6 8428                   MOV.B       @(8,R2),R0
    000008C8 2008                   TST         R0,R0
    000008CA 8B03                   BF          L1308
    000008CC 6132                   MOV.L       @R3,R1
    000008CE 6312                   MOV.L       @R1,R3
    000008D0 A004                   BRA         L1331
    000008D2 0009                   NOP
    000008D4              L1308:                            
    000008D4 9239                   MOV.W       L1589,R2   ; H'0570
    000008D6 D020                   MOV.L       L1589+14,R0; _symtab
    000008D8 6302                   MOV.L       @R0,R3
    000008DA 332C                   ADD         R2,R3
    000008DC              L1331:                            
    000008DC 9236                   MOV.W       L1589+2,R2 ; H'03F0
    000008DE D01E                   MOV.L       L1589+14,R0; _symtab
    000008E0 6102                   MOV.L       @R0,R1




SH SERIES C/C++ Compiler (Ver. 6.0C)                                                                 30-Jul-2013 13:37:29  PAGE   27


SCT OFFSET   CODE       C LABEL     INSTRUCTION OPERAND    COMMENT

    000008E2 312C                   ADD         R2,R1
    000008E4 3310                   CMP/EQ      R1,R3
    000008E6 8901                   BT          L1591
    000008E8 A1BA                   BRA         L1299
    000008EA 0009                   NOP
    000008EC              L1591:                            
    000008EC D319                   MOV.L       L1589+10,R3; _p2
    000008EE 6432                   MOV.L       @R3,R4
    000008F0 8448                   MOV.B       @(8,R4),R0
    000008F2 2008                   TST         R0,R0
    000008F4 8B03                   BF          L1311
    000008F6 D317                   MOV.L       L1589+10,R3; _p2
    000008F8 6432                   MOV.L       @R3,R4
    000008FA A004                   BRA         L1332
    000008FC 5441                   MOV.L       @(4,R4),R4
    000008FE              L1311:                            
    000008FE 9324                   MOV.W       L1589,R3   ; H'0570
    00000900 D215                   MOV.L       L1589+14,R2; _symtab
    00000902 6422                   MOV.L       @R2,R4
    00000904 343C                   ADD         R3,R4
    00000906              L1332:                            
    00000906 8448                   MOV.B       @(8,R4),R0
    00000908 2008                   TST         R0,R0
    0000090A 8B0E                   BF          L1310
    0000090C D311                   MOV.L       L1589+10,R3; _p2
    0000090E 6432                   MOV.L       @R3,R4
    00000910 8448                   MOV.B       @(8,R4),R0
    00000912 2008                   TST         R0,R0
    00000914 8B03                   BF          L1312
    00000916 D30F                   MOV.L       L1589+10,R3; _p2
    00000918 6432                   MOV.L       @R3,R4
    0000091A A004                   BRA         L1333
    0000091C 5441                   MOV.L       @(4,R4),R4
    0000091E              L1312:                            
    0000091E 9314                   MOV.W       L1589,R3   ; H'0570
    00000920 D20D                   MOV.L       L1589+14,R2; _symtab
    00000922 6422                   MOV.L       @R2,R4
    00000924 343C                   ADD         R3,R4
    00000926              L1333:                            
    00000926 A004                   BRA         L1334
    00000928 5441                   MOV.L       @(4,R4),R4
    0000092A              L1310:                            
    0000092A 930E                   MOV.W       L1589,R3   ; H'0570
    0000092C D20A                   MOV.L       L1589+14,R2; _symtab
    0000092E 6422                   MOV.L       @R2,R4
    00000930 343C                   ADD         R3,R4
    00000932              L1334:                            
    00000932 8448                   MOV.B       @(8,R4),R0
    00000934 2008                   TST         R0,R0
    00000936 8B2D                   BF          L1309
    00000938 D306                   MOV.L       L1589+10,R3; _p2
    0000093A 6432                   MOV.L       @R3,R4
    0000093C 8448                   MOV.B       @(8,R4),R0
    0000093E 2008                   TST         R0,R0
    00000940 8B0C                   BF          L1314
    00000942 D304                   MOV.L       L1589+10,R3; _p2
    00000944 6432                   MOV.L       @R3,R4




SH SERIES C/C++ Compiler (Ver. 6.0C)                                                                 30-Jul-2013 13:37:29  PAGE   28


SCT OFFSET   CODE       C LABEL     INSTRUCTION OPERAND    COMMENT

    00000946 A00D                   BRA         L1335
    00000948 5441                   MOV.L       @(4,R4),R4
    0000094A              L1589:                            
    0000094A 0570                   .DATA.W     H'0570
    0000094C 03F0                   .DATA.W     H'03F0
    0000094E 0000                   .DATA.W     0
    00000950 <00000000>             .DATA.L     _isminusone
    00000954 <00000000>             .DATA.L     _p2
    00000958 <00000000>             .DATA.L     _symtab
    0000095C              L1314:                            
    0000095C 9364                   MOV.W       L1592,R3   ; H'0570
    0000095E D233                   MOV.L       L1592+4,R2 ; _symtab
    00000960 6422                   MOV.L       @R2,R4
    00000962 343C                   ADD         R3,R4
    00000964              L1335:                            
    00000964 8448                   MOV.B       @(8,R4),R0
    00000966 2008                   TST         R0,R0
    00000968 8B0E                   BF          L1313
    0000096A D331                   MOV.L       L1592+8,R3 ; _p2
    0000096C 6432                   MOV.L       @R3,R4
    0000096E 8448                   MOV.B       @(8,R4),R0
    00000970 2008                   TST         R0,R0
    00000972 8B03                   BF          L1315
    00000974 D32E                   MOV.L       L1592+8,R3 ; _p2
    00000976 6432                   MOV.L       @R3,R4
    00000978 A004                   BRA         L1336
    0000097A 5441                   MOV.L       @(4,R4),R4
    0000097C              L1315:                            
    0000097C 9354                   MOV.W       L1592,R3   ; H'0570
    0000097E D22B                   MOV.L       L1592+4,R2 ; _symtab
    00000980 6422                   MOV.L       @R2,R4
    00000982 343C                   ADD         R3,R4
    00000984              L1336:                            
    00000984 A004                   BRA         L1337
    00000986 5441                   MOV.L       @(4,R4),R4
    00000988              L1313:                            
    00000988 934E                   MOV.W       L1592,R3   ; H'0570
    0000098A D228                   MOV.L       L1592+4,R2 ; _symtab
    0000098C 6422                   MOV.L       @R2,R4
    0000098E 343C                   ADD         R3,R4
    00000990              L1337:                            
    00000990 A004                   BRA         L1338
    00000992 6442                   MOV.L       @R4,R4
    00000994              L1309:                            
    00000994 9348                   MOV.W       L1592,R3   ; H'0570
    00000996 D225                   MOV.L       L1592+4,R2 ; _symtab
    00000998 6422                   MOV.L       @R2,R4
    0000099A 343C                   ADD         R3,R4
    0000099C              L1338:                            
    0000099C D325                   MOV.L       L1592+12,R3; _isminusone
    0000099E 430B                   JSR         @R3
    000009A0 0009                   NOP
    000009A2 2008                   TST         R0,R0
    000009A4 8B01                   BF          L1593
    000009A6 A15B                   BRA         L1299
    000009A8 0009                   NOP
    000009AA              L1593:                            




SH SERIES C/C++ Compiler (Ver. 6.0C)                                                                 30-Jul-2013 13:37:29  PAGE   29


SCT OFFSET   CODE       C LABEL     INSTRUCTION OPERAND    COMMENT

    000009AA D321                   MOV.L       L1592+8,R3 ; _p2
    000009AC 6232                   MOV.L       @R3,R2
    000009AE 8428                   MOV.B       @(8,R2),R0
    000009B0 2008                   TST         R0,R0
    000009B2 8B03                   BF          L1318
    000009B4 D31E                   MOV.L       L1592+8,R3 ; _p2
    000009B6 6232                   MOV.L       @R3,R2
    000009B8 A004                   BRA         L1339
    000009BA 5321                   MOV.L       @(4,R2),R3
    000009BC              L1318:                            
    000009BC 9234                   MOV.W       L1592,R2   ; H'0570
    000009BE D11B                   MOV.L       L1592+4,R1 ; _symtab
    000009C0 6312                   MOV.L       @R1,R3
    000009C2 332C                   ADD         R2,R3
    000009C4              L1339:                            
    000009C4 8438                   MOV.B       @(8,R3),R0
    000009C6 2008                   TST         R0,R0
    000009C8 8B0E                   BF          L1317
    000009CA D219                   MOV.L       L1592+8,R2 ; _p2
    000009CC 6322                   MOV.L       @R2,R3
    000009CE 8438                   MOV.B       @(8,R3),R0
    000009D0 2008                   TST         R0,R0
    000009D2 8B03                   BF          L1319
    000009D4 D316                   MOV.L       L1592+8,R3 ; _p2
    000009D6 6232                   MOV.L       @R3,R2
    000009D8 A004                   BRA         L1340
    000009DA 5221                   MOV.L       @(4,R2),R2
    000009DC              L1319:                            
    000009DC 9324                   MOV.W       L1592,R3   ; H'0570
    000009DE D113                   MOV.L       L1592+4,R1 ; _symtab
    000009E0 6212                   MOV.L       @R1,R2
    000009E2 323C                   ADD         R3,R2
    000009E4              L1340:                            
    000009E4 A004                   BRA         L1341
    000009E6 6222                   MOV.L       @R2,R2
    000009E8              L1317:                            
    000009E8 931E                   MOV.W       L1592,R3   ; H'0570
    000009EA D110                   MOV.L       L1592+4,R1 ; _symtab
    000009EC 6212                   MOV.L       @R1,R2
    000009EE 323C                   ADD         R3,R2
    000009F0              L1341:                            
    000009F0 8428                   MOV.B       @(8,R2),R0
    000009F2 2008                   TST         R0,R0
    000009F4 8B2C                   BF          L1316
    000009F6 D30E                   MOV.L       L1592+8,R3 ; _p2
    000009F8 6232                   MOV.L       @R3,R2
    000009FA 8428                   MOV.B       @(8,R2),R0
    000009FC 2008                   TST         R0,R0
    000009FE 8B03                   BF          L1321
    00000A00 D30B                   MOV.L       L1592+8,R3 ; _p2
    00000A02 6232                   MOV.L       @R3,R2
    00000A04 A004                   BRA         L1342
    00000A06 5321                   MOV.L       @(4,R2),R3
    00000A08              L1321:                            
    00000A08 920E                   MOV.W       L1592,R2   ; H'0570
    00000A0A D108                   MOV.L       L1592+4,R1 ; _symtab
    00000A0C 6312                   MOV.L       @R1,R3




SH SERIES C/C++ Compiler (Ver. 6.0C)                                                                 30-Jul-2013 13:37:29  PAGE   30


SCT OFFSET   CODE       C LABEL     INSTRUCTION OPERAND    COMMENT

    00000A0E 332C                   ADD         R2,R3
    00000A10              L1342:                            
    00000A10 8438                   MOV.B       @(8,R3),R0
    00000A12 2008                   TST         R0,R0
    00000A14 8B16                   BF          L1320
    00000A16 D206                   MOV.L       L1592+8,R2 ; _p2
    00000A18 6322                   MOV.L       @R2,R3
    00000A1A 8438                   MOV.B       @(8,R3),R0
    00000A1C 2008                   TST         R0,R0
    00000A1E 8B0B                   BF          L1322
    00000A20 D303                   MOV.L       L1592+8,R3 ; _p2
    00000A22 6232                   MOV.L       @R3,R2
    00000A24 A00C                   BRA         L1343
    00000A26 5221                   MOV.L       @(4,R2),R2
    00000A28              L1592:                            
    00000A28 0570                   .DATA.W     H'0570
    00000A2A 0000                   .DATA.W     0
    00000A2C <00000000>             .DATA.L     _symtab
    00000A30 <00000000>             .DATA.L     _p2
    00000A34 <00000000>             .DATA.L     _isminusone
    00000A38              L1322:                            
    00000A38 9360                   MOV.W       L1594,R3   ; H'0570
    00000A3A D131                   MOV.L       L1594+4,R1 ; _symtab
    00000A3C 6212                   MOV.L       @R1,R2
    00000A3E 323C                   ADD         R3,R2
    00000A40              L1343:                            
    00000A40 A004                   BRA         L1344
    00000A42 6222                   MOV.L       @R2,R2
    00000A44              L1320:                            
    00000A44 935A                   MOV.W       L1594,R3   ; H'0570
    00000A46 D12E                   MOV.L       L1594+4,R1 ; _symtab
    00000A48 6212                   MOV.L       @R1,R2
    00000A4A 323C                   ADD         R3,R2
    00000A4C              L1344:                            
    00000A4C A004                   BRA         L1345
    00000A4E 6322                   MOV.L       @R2,R3
    00000A50              L1316:                            
    00000A50 9254                   MOV.W       L1594,R2   ; H'0570
    00000A52 D12B                   MOV.L       L1594+4,R1 ; _symtab
    00000A54 6312                   MOV.L       @R1,R3
    00000A56 332C                   ADD         R2,R3
    00000A58              L1345:                            
    00000A58 9251                   MOV.W       L1594+2,R2 ; H'0258
    00000A5A D129                   MOV.L       L1594+4,R1 ; _symtab
    00000A5C 6012                   MOV.L       @R1,R0
    00000A5E 302C                   ADD         R2,R0
    00000A60 3300                   CMP/EQ      R0,R3
    00000A62 8901                   BT          L1595
    00000A64 A0FC                   BRA         L1299
    00000A66 0009                   NOP
    00000A68              L1595:                            
        simfac.c   211                                    push(cadr(p1)); // modified
    00000A68 64C2                   MOV.L       @R12,R4
    00000A6A 8448                   MOV.B       @(8,R4),R0
    00000A6C 2008                   TST         R0,R0
    00000A6E 8B02                   BF          L1347
    00000A70 64C2                   MOV.L       @R12,R4




SH SERIES C/C++ Compiler (Ver. 6.0C)                                                                 30-Jul-2013 13:37:29  PAGE   31


SCT OFFSET   CODE       C LABEL     INSTRUCTION OPERAND    COMMENT

    00000A72 A004                   BRA         L1349
    00000A74 5441                   MOV.L       @(4,R4),R4
    00000A76              L1347:                            
    00000A76 9341                   MOV.W       L1594,R3   ; H'0570
    00000A78 D221                   MOV.L       L1594+4,R2 ; _symtab
    00000A7A 6422                   MOV.L       @R2,R4
    00000A7C 343C                   ADD         R3,R4
    00000A7E              L1349:                            
    00000A7E 8448                   MOV.B       @(8,R4),R0
    00000A80 2008                   TST         R0,R0
    00000A82 8B0C                   BF          L1346
    00000A84 64C2                   MOV.L       @R12,R4
    00000A86 8448                   MOV.B       @(8,R4),R0
    00000A88 2008                   TST         R0,R0
    00000A8A 8B02                   BF          L1348
    00000A8C 64C2                   MOV.L       @R12,R4
    00000A8E A004                   BRA         L1350
    00000A90 5441                   MOV.L       @(4,R4),R4
    00000A92              L1348:                            
    00000A92 9333                   MOV.W       L1594,R3   ; H'0570
    00000A94 D21A                   MOV.L       L1594+4,R2 ; _symtab
    00000A96 6422                   MOV.L       @R2,R4
    00000A98 343C                   ADD         R3,R4
    00000A9A              L1350:                            
    00000A9A A004                   BRA         L1351
    00000A9C 6442                   MOV.L       @R4,R4
    00000A9E              L1346:                            
    00000A9E 932D                   MOV.W       L1594,R3   ; H'0570
    00000AA0 D217                   MOV.L       L1594+4,R2 ; _symtab
    00000AA2 6422                   MOV.L       @R2,R4
    00000AA4 343C                   ADD         R3,R4
    00000AA6              L1351:                            
    00000AA6 4B0B                   JSR         @R11
    00000AA8 0009                   NOP
        simfac.c   212    
        simfac.c   213                                    push(car(cdr(cadr(p2))));
    00000AAA 64E2                   MOV.L       @R14,R4
    00000AAC 8448                   MOV.B       @(8,R4),R0
    00000AAE 2008                   TST         R0,R0
    00000AB0 8B02                   BF          L1355
    00000AB2 64E2                   MOV.L       @R14,R4
    00000AB4 A004                   BRA         L1367
    00000AB6 5441                   MOV.L       @(4,R4),R4
    00000AB8              L1355:                            
    00000AB8 9320                   MOV.W       L1594,R3   ; H'0570
    00000ABA D211                   MOV.L       L1594+4,R2 ; _symtab
    00000ABC 6422                   MOV.L       @R2,R4
    00000ABE 343C                   ADD         R3,R4
    00000AC0              L1367:                            
    00000AC0 8448                   MOV.B       @(8,R4),R0
    00000AC2 2008                   TST         R0,R0
    00000AC4 8B0C                   BF          L1354
    00000AC6 64E2                   MOV.L       @R14,R4
    00000AC8 8448                   MOV.B       @(8,R4),R0
    00000ACA 2008                   TST         R0,R0
    00000ACC 8B02                   BF          L1356
    00000ACE 64E2                   MOV.L       @R14,R4




SH SERIES C/C++ Compiler (Ver. 6.0C)                                                                 30-Jul-2013 13:37:29  PAGE   32


SCT OFFSET   CODE       C LABEL     INSTRUCTION OPERAND    COMMENT

    00000AD0 A004                   BRA         L1368
    00000AD2 5441                   MOV.L       @(4,R4),R4
    00000AD4              L1356:                            
    00000AD4 9312                   MOV.W       L1594,R3   ; H'0570
    00000AD6 D20A                   MOV.L       L1594+4,R2 ; _symtab
    00000AD8 6422                   MOV.L       @R2,R4
    00000ADA 343C                   ADD         R3,R4
    00000ADC              L1368:                            
    00000ADC A004                   BRA         L1369
    00000ADE 6442                   MOV.L       @R4,R4
    00000AE0              L1354:                            
    00000AE0 930C                   MOV.W       L1594,R3   ; H'0570
    00000AE2 D207                   MOV.L       L1594+4,R2 ; _symtab
    00000AE4 6422                   MOV.L       @R2,R4
    00000AE6 343C                   ADD         R3,R4
    00000AE8              L1369:                            
    00000AE8 8448                   MOV.B       @(8,R4),R0
    00000AEA 2008                   TST         R0,R0
    00000AEC 8B24                   BF          L1353
    00000AEE 64E2                   MOV.L       @R14,R4
    00000AF0 8448                   MOV.B       @(8,R4),R0
    00000AF2 2008                   TST         R0,R0
    00000AF4 8B06                   BF          L1358
    00000AF6 64E2                   MOV.L       @R14,R4
    00000AF8 A008                   BRA         L1370
    00000AFA 5441                   MOV.L       @(4,R4),R4
    00000AFC              L1594:                            
    00000AFC 0570                   .DATA.W     H'0570
    00000AFE 0258                   .DATA.W     H'0258
    00000B00 <00000000>             .DATA.L     _symtab
    00000B04              L1358:                            
    00000B04 9362                   MOV.W       L1596,R3   ; H'0570
    00000B06 D232                   MOV.L       L1596+4,R2 ; _symtab
    00000B08 6422                   MOV.L       @R2,R4
    00000B0A 343C                   ADD         R3,R4
    00000B0C              L1370:                            
    00000B0C 8448                   MOV.B       @(8,R4),R0
    00000B0E 2008                   TST         R0,R0
    00000B10 8B0C                   BF          L1357
    00000B12 64E2                   MOV.L       @R14,R4
    00000B14 8448                   MOV.B       @(8,R4),R0
    00000B16 2008                   TST         R0,R0
    00000B18 8B02                   BF          L1359
    00000B1A 64E2                   MOV.L       @R14,R4
    00000B1C A004                   BRA         L1371
    00000B1E 5441                   MOV.L       @(4,R4),R4
    00000B20              L1359:                            
    00000B20 9354                   MOV.W       L1596,R3   ; H'0570
    00000B22 D22B                   MOV.L       L1596+4,R2 ; _symtab
    00000B24 6422                   MOV.L       @R2,R4
    00000B26 343C                   ADD         R3,R4
    00000B28              L1371:                            
    00000B28 A004                   BRA         L1372
    00000B2A 6442                   MOV.L       @R4,R4
    00000B2C              L1357:                            
    00000B2C 934E                   MOV.W       L1596,R3   ; H'0570
    00000B2E D228                   MOV.L       L1596+4,R2 ; _symtab




SH SERIES C/C++ Compiler (Ver. 6.0C)                                                                 30-Jul-2013 13:37:29  PAGE   33


SCT OFFSET   CODE       C LABEL     INSTRUCTION OPERAND    COMMENT

    00000B30 6422                   MOV.L       @R2,R4
    00000B32 343C                   ADD         R3,R4
    00000B34              L1372:                            
    00000B34 A004                   BRA         L1373
    00000B36 5441                   MOV.L       @(4,R4),R4
    00000B38              L1353:                            
    00000B38 9348                   MOV.W       L1596,R3   ; H'0570
    00000B3A D225                   MOV.L       L1596+4,R2 ; _symtab
    00000B3C 6422                   MOV.L       @R2,R4
    00000B3E 343C                   ADD         R3,R4
    00000B40              L1373:                            
    00000B40 8448                   MOV.B       @(8,R4),R0
    00000B42 2008                   TST         R0,R0
    00000B44 8B4C                   BF          L1352
    00000B46 64E2                   MOV.L       @R14,R4
    00000B48 8448                   MOV.B       @(8,R4),R0
    00000B4A 2008                   TST         R0,R0
    00000B4C 8B02                   BF          L1362
    00000B4E 64E2                   MOV.L       @R14,R4
    00000B50 A004                   BRA         L1374
    00000B52 5441                   MOV.L       @(4,R4),R4
    00000B54              L1362:                            
    00000B54 933A                   MOV.W       L1596,R3   ; H'0570
    00000B56 D21E                   MOV.L       L1596+4,R2 ; _symtab
    00000B58 6422                   MOV.L       @R2,R4
    00000B5A 343C                   ADD         R3,R4
    00000B5C              L1374:                            
    00000B5C 8448                   MOV.B       @(8,R4),R0
    00000B5E 2008                   TST         R0,R0
    00000B60 8B0C                   BF          L1361
    00000B62 64E2                   MOV.L       @R14,R4
    00000B64 8448                   MOV.B       @(8,R4),R0
    00000B66 2008                   TST         R0,R0
    00000B68 8B02                   BF          L1363
    00000B6A 64E2                   MOV.L       @R14,R4
    00000B6C A004                   BRA         L1375
    00000B6E 5441                   MOV.L       @(4,R4),R4
    00000B70              L1363:                            
    00000B70 932C                   MOV.W       L1596,R3   ; H'0570
    00000B72 D217                   MOV.L       L1596+4,R2 ; _symtab
    00000B74 6422                   MOV.L       @R2,R4
    00000B76 343C                   ADD         R3,R4
    00000B78              L1375:                            
    00000B78 A004                   BRA         L1376
    00000B7A 6442                   MOV.L       @R4,R4
    00000B7C              L1361:                            
    00000B7C 9326                   MOV.W       L1596,R3   ; H'0570
    00000B7E D214                   MOV.L       L1596+4,R2 ; _symtab
    00000B80 6422                   MOV.L       @R2,R4
    00000B82 343C                   ADD         R3,R4
    00000B84              L1376:                            
    00000B84 8448                   MOV.B       @(8,R4),R0
    00000B86 2008                   TST         R0,R0
    00000B88 8B24                   BF          L1360
    00000B8A 64E2                   MOV.L       @R14,R4
    00000B8C 8448                   MOV.B       @(8,R4),R0
    00000B8E 2008                   TST         R0,R0




SH SERIES C/C++ Compiler (Ver. 6.0C)                                                                 30-Jul-2013 13:37:29  PAGE   34


SCT OFFSET   CODE       C LABEL     INSTRUCTION OPERAND    COMMENT

    00000B90 8B02                   BF          L1365
    00000B92 64E2                   MOV.L       @R14,R4
    00000B94 A004                   BRA         L1377
    00000B96 5441                   MOV.L       @(4,R4),R4
    00000B98              L1365:                            
    00000B98 9318                   MOV.W       L1596,R3   ; H'0570
    00000B9A D20D                   MOV.L       L1596+4,R2 ; _symtab
    00000B9C 6422                   MOV.L       @R2,R4
    00000B9E 343C                   ADD         R3,R4
    00000BA0              L1377:                            
    00000BA0 8448                   MOV.B       @(8,R4),R0
    00000BA2 2008                   TST         R0,R0
    00000BA4 8B0C                   BF          L1364
    00000BA6 64E2                   MOV.L       @R14,R4
    00000BA8 8448                   MOV.B       @(8,R4),R0
    00000BAA 2008                   TST         R0,R0
    00000BAC 8B02                   BF          L1366
    00000BAE 64E2                   MOV.L       @R14,R4
    00000BB0 A004                   BRA         L1378
    00000BB2 5441                   MOV.L       @(4,R4),R4
    00000BB4              L1366:                            
    00000BB4 930A                   MOV.W       L1596,R3   ; H'0570
    00000BB6 D206                   MOV.L       L1596+4,R2 ; _symtab
    00000BB8 6422                   MOV.L       @R2,R4
    00000BBA 343C                   ADD         R3,R4
    00000BBC              L1378:                            
    00000BBC A004                   BRA         L1379
    00000BBE 6442                   MOV.L       @R4,R4
    00000BC0              L1364:                            
    00000BC0 9304                   MOV.W       L1596,R3   ; H'0570
    00000BC2 D203                   MOV.L       L1596+4,R2 ; _symtab
    00000BC4 6422                   MOV.L       @R2,R4
    00000BC6 343C                   ADD         R3,R4
    00000BC8              L1379:                            
    00000BC8 A008                   BRA         L1380
    00000BCA 5441                   MOV.L       @(4,R4),R4
    00000BCC              L1596:                            
    00000BCC 0570                   .DATA.W     H'0570
    00000BCE 0000                   .DATA.W     0
    00000BD0 <00000000>             .DATA.L     _symtab
    00000BD4              L1360:                            
    00000BD4 9371                   MOV.W       L1597,R3   ; H'0570
    00000BD6 D23A                   MOV.L       L1597+6,R2 ; _symtab
    00000BD8 6422                   MOV.L       @R2,R4
    00000BDA 343C                   ADD         R3,R4
    00000BDC              L1380:                            
    00000BDC A004                   BRA         L1381
    00000BDE 6442                   MOV.L       @R4,R4
    00000BE0              L1352:                            
    00000BE0 936B                   MOV.W       L1597,R3   ; H'0570
    00000BE2 D237                   MOV.L       L1597+6,R2 ; _symtab
    00000BE4 6422                   MOV.L       @R2,R4
    00000BE6 343C                   ADD         R3,R4
    00000BE8              L1381:                            
    00000BE8 4B0B                   JSR         @R11
    00000BEA 0009                   NOP
        simfac.c   214                                    subtract();




SH SERIES C/C++ Compiler (Ver. 6.0C)                                                                 30-Jul-2013 13:37:29  PAGE   35


SCT OFFSET   CODE       C LABEL     INSTRUCTION OPERAND    COMMENT

    00000BEC D335                   MOV.L       L1597+10,R3; _subtract
    00000BEE 430B                   JSR         @R3
    00000BF0 0009                   NOP
        simfac.c   215                                    p3 = pop();
    00000BF2 480B                   JSR         @R8
    00000BF4 0009                   NOP
    00000BF6 D234                   MOV.L       L1597+14,R2; _p3
        simfac.c   216                                    if (isplusone(p3)) {
    00000BF8 D334                   MOV.L       L1597+18,R3; _isplusone
    00000BFA 2202                   MOV.L       R0,@R2
    00000BFC 430B                   JSR         @R3
    00000BFE 6403                   MOV         R0,R4
    00000C00 2008                   TST         R0,R0
    00000C02 892D                   BT          L1299
        simfac.c   217                                            push(cadr(p1));
    00000C04 64C2                   MOV.L       @R12,R4
    00000C06 8448                   MOV.B       @(8,R4),R0
    00000C08 2008                   TST         R0,R0
    00000C0A 8B02                   BF          L1384
    00000C0C 64C2                   MOV.L       @R12,R4
    00000C0E A004                   BRA         L1386
    00000C10 5441                   MOV.L       @(4,R4),R4
    00000C12              L1384:                            
    00000C12 9352                   MOV.W       L1597,R3   ; H'0570
    00000C14 D22A                   MOV.L       L1597+6,R2 ; _symtab
    00000C16 6422                   MOV.L       @R2,R4
    00000C18 343C                   ADD         R3,R4
    00000C1A              L1386:                            
    00000C1A 8448                   MOV.B       @(8,R4),R0
    00000C1C 2008                   TST         R0,R0
    00000C1E 8B0C                   BF          L1383
    00000C20 64C2                   MOV.L       @R12,R4
    00000C22 8448                   MOV.B       @(8,R4),R0
    00000C24 2008                   TST         R0,R0
    00000C26 8B02                   BF          L1385
    00000C28 64C2                   MOV.L       @R12,R4
    00000C2A A004                   BRA         L1387
    00000C2C 5441                   MOV.L       @(4,R4),R4
    00000C2E              L1385:                            
    00000C2E 9344                   MOV.W       L1597,R3   ; H'0570
    00000C30 D223                   MOV.L       L1597+6,R2 ; _symtab
    00000C32 6422                   MOV.L       @R2,R4
    00000C34 343C                   ADD         R3,R4
    00000C36              L1387:                            
    00000C36 A004                   BRA         L1388
    00000C38 6442                   MOV.L       @R4,R4
    00000C3A              L1383:                            
    00000C3A 933E                   MOV.W       L1597,R3   ; H'0570
    00000C3C D220                   MOV.L       L1597+6,R2 ; _symtab
    00000C3E 6422                   MOV.L       @R2,R4
    00000C40 343C                   ADD         R3,R4
    00000C42              L1388:                            
    00000C42 4B0B                   JSR         @R11
    00000C44 0009                   NOP
        simfac.c   218                                            factorial();
    00000C46 D322                   MOV.L       L1597+22,R3; _factorial
    00000C48 430B                   JSR         @R3




SH SERIES C/C++ Compiler (Ver. 6.0C)                                                                 30-Jul-2013 13:37:29  PAGE   36


SCT OFFSET   CODE       C LABEL     INSTRUCTION OPERAND    COMMENT

    00000C4A 0009                   NOP
        simfac.c   219                                            reciprocate();
    00000C4C D221                   MOV.L       L1597+26,R2; _reciprocate
    00000C4E 420B                   JSR         @R2
    00000C50 0009                   NOP
    00000C52              L1570:                            
    00000C52 60A2                   MOV.L       @R10,R0
    00000C54 309C                   ADD         R9,R0
    00000C56 480B                   JSR         @R8
    00000C58 2F06                   MOV.L       R0,@-R15
    00000C5A 63F6                   MOV.L       @R15+,R3
    00000C5C A293                   BRA         L1104
    00000C5E 2302                   MOV.L       R0,@R3
    00000C60              L1299:                            
        simfac.c   220                                            stack[i] = pop();
        simfac.c   221                                            stack[j] = one;
        simfac.c   222                                            return 1;
        simfac.c   223                                    }
        simfac.c   224                            }
        simfac.c   225    
        simfac.c   226                            //      (n + 1)! / n!   ->      n + 1
        simfac.c   227    
        simfac.c   228                            //      n! / (n + 1)!   ->      1 / (n + 1)
        simfac.c   229    
        simfac.c   230                            if (car(p1) == symbol(FACTORIAL)
        simfac.c   231                            && car(p2) == symbol(POWER)
        simfac.c   232                            && isminusone(caddr(p2))
        simfac.c   233                            && caadr(p2) == symbol(FACTORIAL)) {
    00000C60 63C2                   MOV.L       @R12,R3
    00000C62 8438                   MOV.B       @(8,R3),R0
    00000C64 2008                   TST         R0,R0
    00000C66 8B02                   BF          L1390
    00000C68 62C2                   MOV.L       @R12,R2
    00000C6A A004                   BRA         L1406
    00000C6C 6222                   MOV.L       @R2,R2
    00000C6E              L1390:                            
    00000C6E 9324                   MOV.W       L1597,R3   ; H'0570
    00000C70 D113                   MOV.L       L1597+6,R1 ; _symtab
    00000C72 6212                   MOV.L       @R1,R2
    00000C74 323C                   ADD         R3,R2
    00000C76              L1406:                            
    00000C76 9321                   MOV.W       L1597+2,R3 ; H'0258
    00000C78 60D2                   MOV.L       @R13,R0
    00000C7A 303C                   ADD         R3,R0
    00000C7C 3200                   CMP/EQ      R0,R2
    00000C7E 8901                   BT          L1598
    00000C80 A453                   BRA         L1189
    00000C82 0009                   NOP
    00000C84              L1598:                            
    00000C84 D114                   MOV.L       L1597+30,R1; _p2
    00000C86 6212                   MOV.L       @R1,R2
    00000C88 8428                   MOV.B       @(8,R2),R0
    00000C8A 2008                   TST         R0,R0
    00000C8C 8B02                   BF          L1391
    00000C8E 6212                   MOV.L       @R1,R2
    00000C90 A003                   BRA         L1407
    00000C92 6122                   MOV.L       @R2,R1




SH SERIES C/C++ Compiler (Ver. 6.0C)                                                                 30-Jul-2013 13:37:29  PAGE   37


SCT OFFSET   CODE       C LABEL     INSTRUCTION OPERAND    COMMENT

    00000C94              L1391:                            
    00000C94 9211                   MOV.W       L1597,R2   ; H'0570
    00000C96 61D2                   MOV.L       @R13,R1
    00000C98 312C                   ADD         R2,R1
    00000C9A              L1407:                            
    00000C9A 9310                   MOV.W       L1597+4,R3 ; H'03F0
    00000C9C 60D2                   MOV.L       @R13,R0
    00000C9E 303C                   ADD         R3,R0
    00000CA0 3100                   CMP/EQ      R0,R1
    00000CA2 8901                   BT          L1599
    00000CA4 A441                   BRA         L1189
    00000CA6 0009                   NOP
    00000CA8              L1599:                            
    00000CA8 D30B                   MOV.L       L1597+30,R3; _p2
    00000CAA 6432                   MOV.L       @R3,R4
    00000CAC 8448                   MOV.B       @(8,R4),R0
    00000CAE 2008                   TST         R0,R0
    00000CB0 8B14                   BF          L1394
    00000CB2 D309                   MOV.L       L1597+30,R3; _p2
    00000CB4 6432                   MOV.L       @R3,R4
    00000CB6 A014                   BRA         L1408
    00000CB8 5441                   MOV.L       @(4,R4),R4
    00000CBA              L1597:                            
    00000CBA 0570                   .DATA.W     H'0570
    00000CBC 0258                   .DATA.W     H'0258
    00000CBE 03F0                   .DATA.W     H'03F0
    00000CC0 <00000000>             .DATA.L     _symtab
    00000CC4 <00000000>             .DATA.L     _subtract
    00000CC8 <00000000>             .DATA.L     _p3
    00000CCC <00000000>             .DATA.L     _isplusone
    00000CD0 <00000000>             .DATA.L     _factorial
    00000CD4 <00000000>             .DATA.L     _reciprocate
    00000CD8 <00000000>             .DATA.L     _p2
    00000CDC              L1394:                            
    00000CDC 9363                   MOV.W       L1600,R3   ; H'0570
    00000CDE 64D2                   MOV.L       @R13,R4
    00000CE0 343C                   ADD         R3,R4
    00000CE2              L1408:                            
    00000CE2 8448                   MOV.B       @(8,R4),R0
    00000CE4 2008                   TST         R0,R0
    00000CE6 8B0D                   BF          L1393
    00000CE8 D32F                   MOV.L       L1600+2,R3 ; _p2
    00000CEA 6432                   MOV.L       @R3,R4
    00000CEC 8448                   MOV.B       @(8,R4),R0
    00000CEE 2008                   TST         R0,R0
    00000CF0 8B03                   BF          L1395
    00000CF2 D32D                   MOV.L       L1600+2,R3 ; _p2
    00000CF4 6432                   MOV.L       @R3,R4
    00000CF6 A003                   BRA         L1409
    00000CF8 5441                   MOV.L       @(4,R4),R4
    00000CFA              L1395:                            
    00000CFA 9354                   MOV.W       L1600,R3   ; H'0570
    00000CFC 64D2                   MOV.L       @R13,R4
    00000CFE 343C                   ADD         R3,R4
    00000D00              L1409:                            
    00000D00 A003                   BRA         L1410
    00000D02 5441                   MOV.L       @(4,R4),R4




SH SERIES C/C++ Compiler (Ver. 6.0C)                                                                 30-Jul-2013 13:37:29  PAGE   38


SCT OFFSET   CODE       C LABEL     INSTRUCTION OPERAND    COMMENT

    00000D04              L1393:                            
    00000D04 934F                   MOV.W       L1600,R3   ; H'0570
    00000D06 64D2                   MOV.L       @R13,R4
    00000D08 343C                   ADD         R3,R4
    00000D0A              L1410:                            
    00000D0A 8448                   MOV.B       @(8,R4),R0
    00000D0C 2008                   TST         R0,R0
    00000D0E 8B21                   BF          L1392
    00000D10 D325                   MOV.L       L1600+2,R3 ; _p2
    00000D12 6432                   MOV.L       @R3,R4
    00000D14 8448                   MOV.B       @(8,R4),R0
    00000D16 2008                   TST         R0,R0
    00000D18 8B03                   BF          L1397
    00000D1A D323                   MOV.L       L1600+2,R3 ; _p2
    00000D1C 6432                   MOV.L       @R3,R4
    00000D1E A003                   BRA         L1411
    00000D20 5441                   MOV.L       @(4,R4),R4
    00000D22              L1397:                            
    00000D22 9340                   MOV.W       L1600,R3   ; H'0570
    00000D24 64D2                   MOV.L       @R13,R4
    00000D26 343C                   ADD         R3,R4
    00000D28              L1411:                            
    00000D28 8448                   MOV.B       @(8,R4),R0
    00000D2A 2008                   TST         R0,R0
    00000D2C 8B0D                   BF          L1396
    00000D2E D31E                   MOV.L       L1600+2,R3 ; _p2
    00000D30 6432                   MOV.L       @R3,R4
    00000D32 8448                   MOV.B       @(8,R4),R0
    00000D34 2008                   TST         R0,R0
    00000D36 8B03                   BF          L1398
    00000D38 D31B                   MOV.L       L1600+2,R3 ; _p2
    00000D3A 6432                   MOV.L       @R3,R4
    00000D3C A003                   BRA         L1412
    00000D3E 5441                   MOV.L       @(4,R4),R4
    00000D40              L1398:                            
    00000D40 9331                   MOV.W       L1600,R3   ; H'0570
    00000D42 64D2                   MOV.L       @R13,R4
    00000D44 343C                   ADD         R3,R4
    00000D46              L1412:                            
    00000D46 A003                   BRA         L1413
    00000D48 5441                   MOV.L       @(4,R4),R4
    00000D4A              L1396:                            
    00000D4A 932C                   MOV.W       L1600,R3   ; H'0570
    00000D4C 64D2                   MOV.L       @R13,R4
    00000D4E 343C                   ADD         R3,R4
    00000D50              L1413:                            
    00000D50 A003                   BRA         L1414
    00000D52 6442                   MOV.L       @R4,R4
    00000D54              L1392:                            
    00000D54 9327                   MOV.W       L1600,R3   ; H'0570
    00000D56 64D2                   MOV.L       @R13,R4
    00000D58 343C                   ADD         R3,R4
    00000D5A              L1414:                            
    00000D5A D314                   MOV.L       L1600+6,R3 ; _isminusone
    00000D5C 430B                   JSR         @R3
    00000D5E 0009                   NOP
    00000D60 2008                   TST         R0,R0




SH SERIES C/C++ Compiler (Ver. 6.0C)                                                                 30-Jul-2013 13:37:29  PAGE   39


SCT OFFSET   CODE       C LABEL     INSTRUCTION OPERAND    COMMENT

    00000D62 8B01                   BF          L1601
    00000D64 A3E1                   BRA         L1189
    00000D66 0009                   NOP
    00000D68              L1601:                            
    00000D68 D30F                   MOV.L       L1600+2,R3 ; _p2
    00000D6A 6232                   MOV.L       @R3,R2
    00000D6C 8428                   MOV.B       @(8,R2),R0
    00000D6E 2008                   TST         R0,R0
    00000D70 8B03                   BF          L1401
    00000D72 D30D                   MOV.L       L1600+2,R3 ; _p2
    00000D74 6232                   MOV.L       @R3,R2
    00000D76 A004                   BRA         L1415
    00000D78 5321                   MOV.L       @(4,R2),R3
    00000D7A              L1401:                            
    00000D7A 9214                   MOV.W       L1600,R2   ; H'0570
    00000D7C D10C                   MOV.L       L1600+10,R1; _symtab
    00000D7E 6312                   MOV.L       @R1,R3
    00000D80 332C                   ADD         R2,R3
    00000D82              L1415:                            
    00000D82 8438                   MOV.B       @(8,R3),R0
    00000D84 2008                   TST         R0,R0
    00000D86 8B15                   BF          L1400
    00000D88 D207                   MOV.L       L1600+2,R2 ; _p2
    00000D8A 6322                   MOV.L       @R2,R3
    00000D8C 8438                   MOV.B       @(8,R3),R0
    00000D8E 2008                   TST         R0,R0
    00000D90 8B03                   BF          L1402
    00000D92 D305                   MOV.L       L1600+2,R3 ; _p2
    00000D94 6232                   MOV.L       @R3,R2
    00000D96 A004                   BRA         L1416
    00000D98 5221                   MOV.L       @(4,R2),R2
    00000D9A              L1402:                            
    00000D9A 9304                   MOV.W       L1600,R3   ; H'0570
    00000D9C D104                   MOV.L       L1600+10,R1; _symtab
    00000D9E 6212                   MOV.L       @R1,R2
    00000DA0 323C                   ADD         R3,R2
    00000DA2              L1416:                            
    00000DA2 A00B                   BRA         L1417
    00000DA4 6222                   MOV.L       @R2,R2
    00000DA6              L1600:                            
    00000DA6 0570                   .DATA.W     H'0570
    00000DA8 <00000000>             .DATA.L     _p2
    00000DAC <00000000>             .DATA.L     _isminusone
    00000DB0 <00000000>             .DATA.L     _symtab
    00000DB4              L1400:                            
    00000DB4 935E                   MOV.W       L1602,R3   ; H'0570
    00000DB6 D130                   MOV.L       L1602+4,R1 ; _symtab
    00000DB8 6212                   MOV.L       @R1,R2
    00000DBA 323C                   ADD         R3,R2
    00000DBC              L1417:                            
    00000DBC 8428                   MOV.B       @(8,R2),R0
    00000DBE 2008                   TST         R0,R0
    00000DC0 8B24                   BF          L1399
    00000DC2 D32E                   MOV.L       L1602+8,R3 ; _p2
    00000DC4 6232                   MOV.L       @R3,R2
    00000DC6 8428                   MOV.B       @(8,R2),R0
    00000DC8 2008                   TST         R0,R0




SH SERIES C/C++ Compiler (Ver. 6.0C)                                                                 30-Jul-2013 13:37:29  PAGE   40


SCT OFFSET   CODE       C LABEL     INSTRUCTION OPERAND    COMMENT

    00000DCA 8B03                   BF          L1404
    00000DCC D32B                   MOV.L       L1602+8,R3 ; _p2
    00000DCE 6232                   MOV.L       @R3,R2
    00000DD0 A004                   BRA         L1418
    00000DD2 5321                   MOV.L       @(4,R2),R3
    00000DD4              L1404:                            
    00000DD4 924E                   MOV.W       L1602,R2   ; H'0570
    00000DD6 D128                   MOV.L       L1602+4,R1 ; _symtab
    00000DD8 6312                   MOV.L       @R1,R3
    00000DDA 332C                   ADD         R2,R3
    00000DDC              L1418:                            
    00000DDC 8438                   MOV.B       @(8,R3),R0
    00000DDE 2008                   TST         R0,R0
    00000DE0 8B0E                   BF          L1403
    00000DE2 D226                   MOV.L       L1602+8,R2 ; _p2
    00000DE4 6322                   MOV.L       @R2,R3
    00000DE6 8438                   MOV.B       @(8,R3),R0
    00000DE8 2008                   TST         R0,R0
    00000DEA 8B03                   BF          L1405
    00000DEC D323                   MOV.L       L1602+8,R3 ; _p2
    00000DEE 6232                   MOV.L       @R3,R2
    00000DF0 A004                   BRA         L1419
    00000DF2 5221                   MOV.L       @(4,R2),R2
    00000DF4              L1405:                            
    00000DF4 933E                   MOV.W       L1602,R3   ; H'0570
    00000DF6 D120                   MOV.L       L1602+4,R1 ; _symtab
    00000DF8 6212                   MOV.L       @R1,R2
    00000DFA 323C                   ADD         R3,R2
    00000DFC              L1419:                            
    00000DFC A004                   BRA         L1420
    00000DFE 6222                   MOV.L       @R2,R2
    00000E00              L1403:                            
    00000E00 9338                   MOV.W       L1602,R3   ; H'0570
    00000E02 D11D                   MOV.L       L1602+4,R1 ; _symtab
    00000E04 6212                   MOV.L       @R1,R2
    00000E06 323C                   ADD         R3,R2
    00000E08              L1420:                            
    00000E08 A004                   BRA         L1421
    00000E0A 6322                   MOV.L       @R2,R3
    00000E0C              L1399:                            
    00000E0C 9232                   MOV.W       L1602,R2   ; H'0570
    00000E0E D11A                   MOV.L       L1602+4,R1 ; _symtab
    00000E10 6312                   MOV.L       @R1,R3
    00000E12 332C                   ADD         R2,R3
    00000E14              L1421:                            
    00000E14 922F                   MOV.W       L1602+2,R2 ; H'0258
    00000E16 D118                   MOV.L       L1602+4,R1 ; _symtab
    00000E18 6012                   MOV.L       @R1,R0
    00000E1A 302C                   ADD         R2,R0
    00000E1C 3300                   CMP/EQ      R0,R3
    00000E1E 8901                   BT          L1603
    00000E20 A383                   BRA         L1189
    00000E22 0009                   NOP
    00000E24              L1603:                            
        simfac.c   234                                    push(cadr(p1));
    00000E24 64C2                   MOV.L       @R12,R4
    00000E26 8448                   MOV.B       @(8,R4),R0




SH SERIES C/C++ Compiler (Ver. 6.0C)                                                                 30-Jul-2013 13:37:29  PAGE   41


SCT OFFSET   CODE       C LABEL     INSTRUCTION OPERAND    COMMENT

    00000E28 2008                   TST         R0,R0
    00000E2A 8B02                   BF          L1423
    00000E2C 64C2                   MOV.L       @R12,R4
    00000E2E A004                   BRA         L1425
    00000E30 5441                   MOV.L       @(4,R4),R4
    00000E32              L1423:                            
    00000E32 931F                   MOV.W       L1602,R3   ; H'0570
    00000E34 D210                   MOV.L       L1602+4,R2 ; _symtab
    00000E36 6422                   MOV.L       @R2,R4
    00000E38 343C                   ADD         R3,R4
    00000E3A              L1425:                            
    00000E3A 8448                   MOV.B       @(8,R4),R0
    00000E3C 2008                   TST         R0,R0
    00000E3E 8B0C                   BF          L1422
    00000E40 64C2                   MOV.L       @R12,R4
    00000E42 8448                   MOV.B       @(8,R4),R0
    00000E44 2008                   TST         R0,R0
    00000E46 8B02                   BF          L1424
    00000E48 64C2                   MOV.L       @R12,R4
    00000E4A A004                   BRA         L1426
    00000E4C 5441                   MOV.L       @(4,R4),R4
    00000E4E              L1424:                            
    00000E4E 9311                   MOV.W       L1602,R3   ; H'0570
    00000E50 D209                   MOV.L       L1602+4,R2 ; _symtab
    00000E52 6422                   MOV.L       @R2,R4
    00000E54 343C                   ADD         R3,R4
    00000E56              L1426:                            
    00000E56 A004                   BRA         L1427
    00000E58 6442                   MOV.L       @R4,R4
    00000E5A              L1422:                            
    00000E5A 930B                   MOV.W       L1602,R3   ; H'0570
    00000E5C D206                   MOV.L       L1602+4,R2 ; _symtab
    00000E5E 6422                   MOV.L       @R2,R4
    00000E60 343C                   ADD         R3,R4
    00000E62              L1427:                            
    00000E62 4B0B                   JSR         @R11
    00000E64 0009                   NOP
        simfac.c   235                                    push(car(cdr(cadr(p2))));
    00000E66 64E2                   MOV.L       @R14,R4
    00000E68 8448                   MOV.B       @(8,R4),R0
    00000E6A 2008                   TST         R0,R0
    00000E6C 8B08                   BF          L1431
    00000E6E 64E2                   MOV.L       @R14,R4
    00000E70 A00A                   BRA         L1443
    00000E72 5441                   MOV.L       @(4,R4),R4
    00000E74              L1602:                            
    00000E74 0570                   .DATA.W     H'0570
    00000E76 0258                   .DATA.W     H'0258
    00000E78 <00000000>             .DATA.L     _symtab
    00000E7C <00000000>             .DATA.L     _p2
    00000E80              L1431:                            
    00000E80 935C                   MOV.W       L1604,R3   ; H'0570
    00000E82 D22F                   MOV.L       L1604+4,R2 ; _symtab
    00000E84 6422                   MOV.L       @R2,R4
    00000E86 343C                   ADD         R3,R4
    00000E88              L1443:                            
    00000E88 8448                   MOV.B       @(8,R4),R0




SH SERIES C/C++ Compiler (Ver. 6.0C)                                                                 30-Jul-2013 13:37:29  PAGE   42


SCT OFFSET   CODE       C LABEL     INSTRUCTION OPERAND    COMMENT

    00000E8A 2008                   TST         R0,R0
    00000E8C 8B0C                   BF          L1430
    00000E8E 64E2                   MOV.L       @R14,R4
    00000E90 8448                   MOV.B       @(8,R4),R0
    00000E92 2008                   TST         R0,R0
    00000E94 8B02                   BF          L1432
    00000E96 64E2                   MOV.L       @R14,R4
    00000E98 A004                   BRA         L1444
    00000E9A 5441                   MOV.L       @(4,R4),R4
    00000E9C              L1432:                            
    00000E9C 934E                   MOV.W       L1604,R3   ; H'0570
    00000E9E D228                   MOV.L       L1604+4,R2 ; _symtab
    00000EA0 6422                   MOV.L       @R2,R4
    00000EA2 343C                   ADD         R3,R4
    00000EA4              L1444:                            
    00000EA4 A004                   BRA         L1445
    00000EA6 6442                   MOV.L       @R4,R4
    00000EA8              L1430:                            
    00000EA8 9348                   MOV.W       L1604,R3   ; H'0570
    00000EAA D225                   MOV.L       L1604+4,R2 ; _symtab
    00000EAC 6422                   MOV.L       @R2,R4
    00000EAE 343C                   ADD         R3,R4
    00000EB0              L1445:                            
    00000EB0 8448                   MOV.B       @(8,R4),R0
    00000EB2 2008                   TST         R0,R0
    00000EB4 8B20                   BF          L1429
    00000EB6 64E2                   MOV.L       @R14,R4
    00000EB8 8448                   MOV.B       @(8,R4),R0
    00000EBA 2008                   TST         R0,R0
    00000EBC 8B02                   BF          L1434
    00000EBE 64E2                   MOV.L       @R14,R4
    00000EC0 A004                   BRA         L1446
    00000EC2 5441                   MOV.L       @(4,R4),R4
    00000EC4              L1434:                            
    00000EC4 933A                   MOV.W       L1604,R3   ; H'0570
    00000EC6 D21E                   MOV.L       L1604+4,R2 ; _symtab
    00000EC8 6422                   MOV.L       @R2,R4
    00000ECA 343C                   ADD         R3,R4
    00000ECC              L1446:                            
    00000ECC 8448                   MOV.B       @(8,R4),R0
    00000ECE 2008                   TST         R0,R0
    00000ED0 8B0C                   BF          L1433
    00000ED2 64E2                   MOV.L       @R14,R4
    00000ED4 8448                   MOV.B       @(8,R4),R0
    00000ED6 2008                   TST         R0,R0
    00000ED8 8B02                   BF          L1435
    00000EDA 64E2                   MOV.L       @R14,R4
    00000EDC A004                   BRA         L1447
    00000EDE 5441                   MOV.L       @(4,R4),R4
    00000EE0              L1435:                            
    00000EE0 932C                   MOV.W       L1604,R3   ; H'0570
    00000EE2 D217                   MOV.L       L1604+4,R2 ; _symtab
    00000EE4 6422                   MOV.L       @R2,R4
    00000EE6 343C                   ADD         R3,R4
    00000EE8              L1447:                            
    00000EE8 A004                   BRA         L1448
    00000EEA 6442                   MOV.L       @R4,R4




SH SERIES C/C++ Compiler (Ver. 6.0C)                                                                 30-Jul-2013 13:37:29  PAGE   43


SCT OFFSET   CODE       C LABEL     INSTRUCTION OPERAND    COMMENT

    00000EEC              L1433:                            
    00000EEC 9326                   MOV.W       L1604,R3   ; H'0570
    00000EEE D214                   MOV.L       L1604+4,R2 ; _symtab
    00000EF0 6422                   MOV.L       @R2,R4
    00000EF2 343C                   ADD         R3,R4
    00000EF4              L1448:                            
    00000EF4 A004                   BRA         L1449
    00000EF6 5441                   MOV.L       @(4,R4),R4
    00000EF8              L1429:                            
    00000EF8 9320                   MOV.W       L1604,R3   ; H'0570
    00000EFA D211                   MOV.L       L1604+4,R2 ; _symtab
    00000EFC 6422                   MOV.L       @R2,R4
    00000EFE 343C                   ADD         R3,R4
    00000F00              L1449:                            
    00000F00 8448                   MOV.B       @(8,R4),R0
    00000F02 2008                   TST         R0,R0
    00000F04 8B4C                   BF          L1428
    00000F06 64E2                   MOV.L       @R14,R4
    00000F08 8448                   MOV.B       @(8,R4),R0
    00000F0A 2008                   TST         R0,R0
    00000F0C 8B02                   BF          L1438
    00000F0E 64E2                   MOV.L       @R14,R4
    00000F10 A004                   BRA         L1450
    00000F12 5441                   MOV.L       @(4,R4),R4
    00000F14              L1438:                            
    00000F14 9312                   MOV.W       L1604,R3   ; H'0570
    00000F16 D20A                   MOV.L       L1604+4,R2 ; _symtab
    00000F18 6422                   MOV.L       @R2,R4
    00000F1A 343C                   ADD         R3,R4
    00000F1C              L1450:                            
    00000F1C 8448                   MOV.B       @(8,R4),R0
    00000F1E 2008                   TST         R0,R0
    00000F20 8B10                   BF          L1437
    00000F22 64E2                   MOV.L       @R14,R4
    00000F24 8448                   MOV.B       @(8,R4),R0
    00000F26 2008                   TST         R0,R0
    00000F28 8B02                   BF          L1439
    00000F2A 64E2                   MOV.L       @R14,R4
    00000F2C A004                   BRA         L1451
    00000F2E 5441                   MOV.L       @(4,R4),R4
    00000F30              L1439:                            
    00000F30 9304                   MOV.W       L1604,R3   ; H'0570
    00000F32 D203                   MOV.L       L1604+4,R2 ; _symtab
    00000F34 6422                   MOV.L       @R2,R4
    00000F36 343C                   ADD         R3,R4
    00000F38              L1451:                            
    00000F38 A008                   BRA         L1452
    00000F3A 6442                   MOV.L       @R4,R4
    00000F3C              L1604:                            
    00000F3C 0570                   .DATA.W     H'0570
    00000F3E 0000                   .DATA.W     0
    00000F40 <00000000>             .DATA.L     _symtab
    00000F44              L1437:                            
    00000F44 9364                   MOV.W       L1605,R3   ; H'0570
    00000F46 D233                   MOV.L       L1605+4,R2 ; _symtab
    00000F48 6422                   MOV.L       @R2,R4
    00000F4A 343C                   ADD         R3,R4




SH SERIES C/C++ Compiler (Ver. 6.0C)                                                                 30-Jul-2013 13:37:29  PAGE   44


SCT OFFSET   CODE       C LABEL     INSTRUCTION OPERAND    COMMENT

    00000F4C              L1452:                            
    00000F4C 8448                   MOV.B       @(8,R4),R0
    00000F4E 2008                   TST         R0,R0
    00000F50 8B20                   BF          L1436
    00000F52 64E2                   MOV.L       @R14,R4
    00000F54 8448                   MOV.B       @(8,R4),R0
    00000F56 2008                   TST         R0,R0
    00000F58 8B02                   BF          L1441
    00000F5A 64E2                   MOV.L       @R14,R4
    00000F5C A004                   BRA         L1453
    00000F5E 5441                   MOV.L       @(4,R4),R4
    00000F60              L1441:                            
    00000F60 9356                   MOV.W       L1605,R3   ; H'0570
    00000F62 D22C                   MOV.L       L1605+4,R2 ; _symtab
    00000F64 6422                   MOV.L       @R2,R4
    00000F66 343C                   ADD         R3,R4
    00000F68              L1453:                            
    00000F68 8448                   MOV.B       @(8,R4),R0
    00000F6A 2008                   TST         R0,R0
    00000F6C 8B0C                   BF          L1440
    00000F6E 64E2                   MOV.L       @R14,R4
    00000F70 8448                   MOV.B       @(8,R4),R0
    00000F72 2008                   TST         R0,R0
    00000F74 8B02                   BF          L1442
    00000F76 64E2                   MOV.L       @R14,R4
    00000F78 A004                   BRA         L1454
    00000F7A 5441                   MOV.L       @(4,R4),R4
    00000F7C              L1442:                            
    00000F7C 9348                   MOV.W       L1605,R3   ; H'0570
    00000F7E D225                   MOV.L       L1605+4,R2 ; _symtab
    00000F80 6422                   MOV.L       @R2,R4
    00000F82 343C                   ADD         R3,R4
    00000F84              L1454:                            
    00000F84 A004                   BRA         L1455
    00000F86 6442                   MOV.L       @R4,R4
    00000F88              L1440:                            
    00000F88 9342                   MOV.W       L1605,R3   ; H'0570
    00000F8A D222                   MOV.L       L1605+4,R2 ; _symtab
    00000F8C 6422                   MOV.L       @R2,R4
    00000F8E 343C                   ADD         R3,R4
    00000F90              L1455:                            
    00000F90 A004                   BRA         L1456
    00000F92 5441                   MOV.L       @(4,R4),R4
    00000F94              L1436:                            
    00000F94 933C                   MOV.W       L1605,R3   ; H'0570
    00000F96 D21F                   MOV.L       L1605+4,R2 ; _symtab
    00000F98 6422                   MOV.L       @R2,R4
    00000F9A 343C                   ADD         R3,R4
    00000F9C              L1456:                            
    00000F9C A004                   BRA         L1457
    00000F9E 6442                   MOV.L       @R4,R4
    00000FA0              L1428:                            
    00000FA0 9336                   MOV.W       L1605,R3   ; H'0570
    00000FA2 D21C                   MOV.L       L1605+4,R2 ; _symtab
    00000FA4 6422                   MOV.L       @R2,R4
    00000FA6 343C                   ADD         R3,R4
    00000FA8              L1457:                            




SH SERIES C/C++ Compiler (Ver. 6.0C)                                                                 30-Jul-2013 13:37:29  PAGE   45


SCT OFFSET   CODE       C LABEL     INSTRUCTION OPERAND    COMMENT

    00000FA8 4B0B                   JSR         @R11
    00000FAA 0009                   NOP
        simfac.c   236                                    subtract();
    00000FAC D31A                   MOV.L       L1605+8,R3 ; _subtract
    00000FAE 430B                   JSR         @R3
    00000FB0 0009                   NOP
        simfac.c   237                                    p3 = pop();
    00000FB2 480B                   JSR         @R8
    00000FB4 0009                   NOP
    00000FB6 D219                   MOV.L       L1605+12,R2; _p3
        simfac.c   238                                    if (isplusone(p3)) {
    00000FB8 D319                   MOV.L       L1605+16,R3; _isplusone
    00000FBA 2202                   MOV.L       R0,@R2
    00000FBC 430B                   JSR         @R3
    00000FBE 6403                   MOV         R0,R4
    00000FC0 2008                   TST         R0,R0
    00000FC2 892F                   BT          L1458
        simfac.c   239                                            stack[i] = cadr(p1);
    00000FC4 60A2                   MOV.L       @R10,R0
    00000FC6 309C                   ADD         R9,R0
    00000FC8 2F06                   MOV.L       R0,@-R15
    00000FCA 63C2                   MOV.L       @R12,R3
    00000FCC 8438                   MOV.B       @(8,R3),R0
    00000FCE 2008                   TST         R0,R0
    00000FD0 8B02                   BF          L1460
    00000FD2 62C2                   MOV.L       @R12,R2
    00000FD4 A004                   BRA         L1462
    00000FD6 5221                   MOV.L       @(4,R2),R2
    00000FD8              L1460:                            
    00000FD8 931A                   MOV.W       L1605,R3   ; H'0570
    00000FDA D10E                   MOV.L       L1605+4,R1 ; _symtab
    00000FDC 6212                   MOV.L       @R1,R2
    00000FDE 323C                   ADD         R3,R2
    00000FE0              L1462:                            
    00000FE0 8428                   MOV.B       @(8,R2),R0
    00000FE2 2008                   TST         R0,R0
    00000FE4 8B0D                   BF          L1459
    00000FE6 63C2                   MOV.L       @R12,R3
    00000FE8 8438                   MOV.B       @(8,R3),R0
    00000FEA 2008                   TST         R0,R0
    00000FEC 8B02                   BF          L1461
    00000FEE 62C2                   MOV.L       @R12,R2
    00000FF0 A004                   BRA         L1463
    00000FF2 5221                   MOV.L       @(4,R2),R2
    00000FF4              L1461:                            
    00000FF4 930C                   MOV.W       L1605,R3   ; H'0570
    00000FF6 D107                   MOV.L       L1605+4,R1 ; _symtab
    00000FF8 6212                   MOV.L       @R1,R2
    00000FFA 323C                   ADD         R3,R2
    00000FFC              L1463:                            
    00000FFC 6322                   MOV.L       @R2,R3
    00000FFE A004                   BRA         L1464
    00001000 0009                   NOP
    00001002              L1459:                            
    00001002 9205                   MOV.W       L1605,R2   ; H'0570
    00001004 D103                   MOV.L       L1605+4,R1 ; _symtab
    00001006 6312                   MOV.L       @R1,R3




SH SERIES C/C++ Compiler (Ver. 6.0C)                                                                 30-Jul-2013 13:37:29  PAGE   46


SCT OFFSET   CODE       C LABEL     INSTRUCTION OPERAND    COMMENT

    00001008 332C                   ADD         R2,R3
    0000100A              L1464:                            
    0000100A 61F6                   MOV.L       @R15+,R1
    0000100C A0BB                   BRA         L1104
    0000100E 2132                   MOV.L       R3,@R1
    00001010              L1605:                            
    00001010 0570                   .DATA.W     H'0570
    00001012 0000                   .DATA.W     0
    00001014 <00000000>             .DATA.L     _symtab
    00001018 <00000000>             .DATA.L     _subtract
    0000101C <00000000>             .DATA.L     _p3
    00001020 <00000000>             .DATA.L     _isplusone
    00001024              L1458:                            
        simfac.c   240                                            stack[j] = one;
        simfac.c   241                                            return 1;
        simfac.c   242                                    }
        simfac.c   243                                    if (isminusone(p3)) {
    00001024 D333                   MOV.L       L1606+2,R3 ; _p3
    00001026 D234                   MOV.L       L1606+6,R2 ; _isminusone
    00001028 420B                   JSR         @R2
    0000102A 6432                   MOV.L       @R3,R4
    0000102C 2008                   TST         R0,R0
    0000102E 8B01                   BF          L1607
    00001030 A0B1                   BRA         L1465
    00001032 0009                   NOP
    00001034              L1607:                            
        simfac.c   244                                            push(car(cdr(cadr(p2))));
    00001034 64E2                   MOV.L       @R14,R4
    00001036 8448                   MOV.B       @(8,R4),R0
    00001038 2008                   TST         R0,R0
    0000103A 8B02                   BF          L1469
    0000103C 64E2                   MOV.L       @R14,R4
    0000103E A004                   BRA         L1481
    00001040 5441                   MOV.L       @(4,R4),R4
    00001042              L1469:                            
    00001042 9356                   MOV.W       L1606,R3   ; H'0570
    00001044 D22D                   MOV.L       L1606+10,R2; _symtab
    00001046 6422                   MOV.L       @R2,R4
    00001048 343C                   ADD         R3,R4
    0000104A              L1481:                            
    0000104A 8448                   MOV.B       @(8,R4),R0
    0000104C 2008                   TST         R0,R0
    0000104E 8B0C                   BF          L1468
    00001050 64E2                   MOV.L       @R14,R4
    00001052 8448                   MOV.B       @(8,R4),R0
    00001054 2008                   TST         R0,R0
    00001056 8B02                   BF          L1470
    00001058 64E2                   MOV.L       @R14,R4
    0000105A A004                   BRA         L1482
    0000105C 5441                   MOV.L       @(4,R4),R4
    0000105E              L1470:                            
    0000105E 9348                   MOV.W       L1606,R3   ; H'0570
    00001060 D226                   MOV.L       L1606+10,R2; _symtab
    00001062 6422                   MOV.L       @R2,R4
    00001064 343C                   ADD         R3,R4
    00001066              L1482:                            
    00001066 A004                   BRA         L1483




SH SERIES C/C++ Compiler (Ver. 6.0C)                                                                 30-Jul-2013 13:37:29  PAGE   47


SCT OFFSET   CODE       C LABEL     INSTRUCTION OPERAND    COMMENT

    00001068 6442                   MOV.L       @R4,R4
    0000106A              L1468:                            
    0000106A 9342                   MOV.W       L1606,R3   ; H'0570
    0000106C D223                   MOV.L       L1606+10,R2; _symtab
    0000106E 6422                   MOV.L       @R2,R4
    00001070 343C                   ADD         R3,R4
    00001072              L1483:                            
    00001072 8448                   MOV.B       @(8,R4),R0
    00001074 2008                   TST         R0,R0
    00001076 8B20                   BF          L1467
    00001078 64E2                   MOV.L       @R14,R4
    0000107A 8448                   MOV.B       @(8,R4),R0
    0000107C 2008                   TST         R0,R0
    0000107E 8B02                   BF          L1472
    00001080 64E2                   MOV.L       @R14,R4
    00001082 A004                   BRA         L1484
    00001084 5441                   MOV.L       @(4,R4),R4
    00001086              L1472:                            
    00001086 9334                   MOV.W       L1606,R3   ; H'0570
    00001088 D21C                   MOV.L       L1606+10,R2; _symtab
    0000108A 6422                   MOV.L       @R2,R4
    0000108C 343C                   ADD         R3,R4
    0000108E              L1484:                            
    0000108E 8448                   MOV.B       @(8,R4),R0
    00001090 2008                   TST         R0,R0
    00001092 8B0C                   BF          L1471
    00001094 64E2                   MOV.L       @R14,R4
    00001096 8448                   MOV.B       @(8,R4),R0
    00001098 2008                   TST         R0,R0
    0000109A 8B02                   BF          L1473
    0000109C 64E2                   MOV.L       @R14,R4
    0000109E A004                   BRA         L1485
    000010A0 5441                   MOV.L       @(4,R4),R4
    000010A2              L1473:                            
    000010A2 9326                   MOV.W       L1606,R3   ; H'0570
    000010A4 D215                   MOV.L       L1606+10,R2; _symtab
    000010A6 6422                   MOV.L       @R2,R4
    000010A8 343C                   ADD         R3,R4
    000010AA              L1485:                            
    000010AA A004                   BRA         L1486
    000010AC 6442                   MOV.L       @R4,R4
    000010AE              L1471:                            
    000010AE 9320                   MOV.W       L1606,R3   ; H'0570
    000010B0 D212                   MOV.L       L1606+10,R2; _symtab
    000010B2 6422                   MOV.L       @R2,R4
    000010B4 343C                   ADD         R3,R4
    000010B6              L1486:                            
    000010B6 A004                   BRA         L1487
    000010B8 5441                   MOV.L       @(4,R4),R4
    000010BA              L1467:                            
    000010BA 931A                   MOV.W       L1606,R3   ; H'0570
    000010BC D20F                   MOV.L       L1606+10,R2; _symtab
    000010BE 6422                   MOV.L       @R2,R4
    000010C0 343C                   ADD         R3,R4
    000010C2              L1487:                            
    000010C2 8448                   MOV.B       @(8,R4),R0
    000010C4 2008                   TST         R0,R0




SH SERIES C/C++ Compiler (Ver. 6.0C)                                                                 30-Jul-2013 13:37:29  PAGE   48


SCT OFFSET   CODE       C LABEL     INSTRUCTION OPERAND    COMMENT

    000010C6 8B4F                   BF          L1466
    000010C8 64E2                   MOV.L       @R14,R4
    000010CA 8448                   MOV.B       @(8,R4),R0
    000010CC 2008                   TST         R0,R0
    000010CE 8B02                   BF          L1476
    000010D0 64E2                   MOV.L       @R14,R4
    000010D2 A004                   BRA         L1488
    000010D4 5441                   MOV.L       @(4,R4),R4
    000010D6              L1476:                            
    000010D6 930C                   MOV.W       L1606,R3   ; H'0570
    000010D8 D208                   MOV.L       L1606+10,R2; _symtab
    000010DA 6422                   MOV.L       @R2,R4
    000010DC 343C                   ADD         R3,R4
    000010DE              L1488:                            
    000010DE 8448                   MOV.B       @(8,R4),R0
    000010E0 2008                   TST         R0,R0
    000010E2 8B13                   BF          L1475
    000010E4 64E2                   MOV.L       @R14,R4
    000010E6 8448                   MOV.B       @(8,R4),R0
    000010E8 2008                   TST         R0,R0
    000010EA 8B09                   BF          L1477
    000010EC 64E2                   MOV.L       @R14,R4
    000010EE A00B                   BRA         L1489
    000010F0 5441                   MOV.L       @(4,R4),R4
    000010F2              L1606:                            
    000010F2 0570                   .DATA.W     H'0570
    000010F4 <00000000>             .DATA.L     _p3
    000010F8 <00000000>             .DATA.L     _isminusone
    000010FC <00000000>             .DATA.L     _symtab
    00001100              L1477:                            
    00001100 936F                   MOV.W       L1608,R3   ; H'0570
    00001102 D238                   MOV.L       L1608+2,R2 ; _symtab
    00001104 6422                   MOV.L       @R2,R4
    00001106 343C                   ADD         R3,R4
    00001108              L1489:                            
    00001108 A004                   BRA         L1490
    0000110A 6442                   MOV.L       @R4,R4
    0000110C              L1475:                            
    0000110C 9369                   MOV.W       L1608,R3   ; H'0570
    0000110E D235                   MOV.L       L1608+2,R2 ; _symtab
    00001110 6422                   MOV.L       @R2,R4
    00001112 343C                   ADD         R3,R4
    00001114              L1490:                            
    00001114 8448                   MOV.B       @(8,R4),R0
    00001116 2008                   TST         R0,R0
    00001118 8B20                   BF          L1474
    0000111A 64E2                   MOV.L       @R14,R4
    0000111C 8448                   MOV.B       @(8,R4),R0
    0000111E 2008                   TST         R0,R0
    00001120 8B02                   BF          L1479
    00001122 64E2                   MOV.L       @R14,R4
    00001124 A004                   BRA         L1491
    00001126 5441                   MOV.L       @(4,R4),R4
    00001128              L1479:                            
    00001128 935B                   MOV.W       L1608,R3   ; H'0570
    0000112A D22E                   MOV.L       L1608+2,R2 ; _symtab
    0000112C 6422                   MOV.L       @R2,R4




SH SERIES C/C++ Compiler (Ver. 6.0C)                                                                 30-Jul-2013 13:37:29  PAGE   49


SCT OFFSET   CODE       C LABEL     INSTRUCTION OPERAND    COMMENT

    0000112E 343C                   ADD         R3,R4
    00001130              L1491:                            
    00001130 8448                   MOV.B       @(8,R4),R0
    00001132 2008                   TST         R0,R0
    00001134 8B0C                   BF          L1478
    00001136 64E2                   MOV.L       @R14,R4
    00001138 8448                   MOV.B       @(8,R4),R0
    0000113A 2008                   TST         R0,R0
    0000113C 8B02                   BF          L1480
    0000113E 64E2                   MOV.L       @R14,R4
    00001140 A004                   BRA         L1492
    00001142 5441                   MOV.L       @(4,R4),R4
    00001144              L1480:                            
    00001144 934D                   MOV.W       L1608,R3   ; H'0570
    00001146 D227                   MOV.L       L1608+2,R2 ; _symtab
    00001148 6422                   MOV.L       @R2,R4
    0000114A 343C                   ADD         R3,R4
    0000114C              L1492:                            
    0000114C A004                   BRA         L1493
    0000114E 6442                   MOV.L       @R4,R4
    00001150              L1478:                            
    00001150 9347                   MOV.W       L1608,R3   ; H'0570
    00001152 D224                   MOV.L       L1608+2,R2 ; _symtab
    00001154 6422                   MOV.L       @R2,R4
    00001156 343C                   ADD         R3,R4
    00001158              L1493:                            
    00001158 A004                   BRA         L1494
    0000115A 5441                   MOV.L       @(4,R4),R4
    0000115C              L1474:                            
    0000115C 9341                   MOV.W       L1608,R3   ; H'0570
    0000115E D221                   MOV.L       L1608+2,R2 ; _symtab
    00001160 6422                   MOV.L       @R2,R4
    00001162 343C                   ADD         R3,R4
    00001164              L1494:                            
    00001164 A004                   BRA         L1495
    00001166 6442                   MOV.L       @R4,R4
    00001168              L1466:                            
    00001168 933B                   MOV.W       L1608,R3   ; H'0570
    0000116A D21E                   MOV.L       L1608+2,R2 ; _symtab
    0000116C 6422                   MOV.L       @R2,R4
    0000116E 343C                   ADD         R3,R4
    00001170              L1495:                            
    00001170 4B0B                   JSR         @R11
    00001172 0009                   NOP
        simfac.c   245                                            reciprocate();
    00001174 D31C                   MOV.L       L1608+6,R3 ; _reciprocate
    00001176 430B                   JSR         @R3
    00001178 0009                   NOP
        simfac.c   246                                            stack[i] = pop();
    0000117A 60A2                   MOV.L       @R10,R0
    0000117C 309C                   ADD         R9,R0
    0000117E 480B                   JSR         @R8
    00001180 2F06                   MOV.L       R0,@-R15
    00001182 62F6                   MOV.L       @R15+,R2
    00001184 2202                   MOV.L       R0,@R2
    00001186              L1104:
        simfac.c   247                                            stack[j] = one;




SH SERIES C/C++ Compiler (Ver. 6.0C)                                                                 30-Jul-2013 13:37:29  PAGE   50


SCT OFFSET   CODE       C LABEL     INSTRUCTION OPERAND    COMMENT

    00001186 60F2                   MOV.L       @R15,R0
    00001188 63A2                   MOV.L       @R10,R3
    0000118A 4008                   SHLL2       R0
    0000118C D117                   MOV.L       L1608+10,R1; _one
    0000118E 6212                   MOV.L       @R1,R2
    00001190 0326                   MOV.L       R2,@(R0,R3)
    00001192 A1C8                   BRA         L1572
    00001194 0009                   NOP
    00001196              L1465:                            
        simfac.c   248                                            return 1;
        simfac.c   249                                    }
        simfac.c   250                                    if (equaln(p3, 2)) {
    00001196 E502                   MOV         #2,R5
    00001198 D316                   MOV.L       L1608+18,R3; _p3
    0000119A DD15                   MOV.L       L1608+14,R13; _equaln
    0000119C 4D0B                   JSR         @R13
    0000119E 6432                   MOV.L       @R3,R4
    000011A0 2008                   TST         R0,R0
    000011A2 8958                   BT          L1496
        simfac.c   251                                            stack[i] = cadr(p1);
    000011A4 60A2                   MOV.L       @R10,R0
    000011A6 309C                   ADD         R9,R0
    000011A8 2F06                   MOV.L       R0,@-R15
    000011AA 63C2                   MOV.L       @R12,R3
    000011AC 8438                   MOV.B       @(8,R3),R0
    000011AE 2008                   TST         R0,R0
    000011B0 8B02                   BF          L1498
    000011B2 62C2                   MOV.L       @R12,R2
    000011B4 A004                   BRA         L1500
    000011B6 5221                   MOV.L       @(4,R2),R2
    000011B8              L1498:                            
    000011B8 9313                   MOV.W       L1608,R3   ; H'0570
    000011BA D10A                   MOV.L       L1608+2,R1 ; _symtab
    000011BC 6212                   MOV.L       @R1,R2
    000011BE 323C                   ADD         R3,R2
    000011C0              L1500:                            
    000011C0 8428                   MOV.B       @(8,R2),R0
    000011C2 2008                   TST         R0,R0
    000011C4 8B18                   BF          L1497
    000011C6 63C2                   MOV.L       @R12,R3
    000011C8 8438                   MOV.B       @(8,R3),R0
    000011CA 2008                   TST         R0,R0
    000011CC 8B02                   BF          L1499
    000011CE 62C2                   MOV.L       @R12,R2
    000011D0 A004                   BRA         L1501
    000011D2 5221                   MOV.L       @(4,R2),R2
    000011D4              L1499:                            
    000011D4 9305                   MOV.W       L1608,R3   ; H'0570
    000011D6 D103                   MOV.L       L1608+2,R1 ; _symtab
    000011D8 6212                   MOV.L       @R1,R2
    000011DA 323C                   ADD         R3,R2
    000011DC              L1501:                            
    000011DC 6322                   MOV.L       @R2,R3
    000011DE A00F                   BRA         L1502
    000011E0 0009                   NOP
    000011E2              L1608:                            
    000011E2 0570                   .DATA.W     H'0570




SH SERIES C/C++ Compiler (Ver. 6.0C)                                                                 30-Jul-2013 13:37:29  PAGE   51


SCT OFFSET   CODE       C LABEL     INSTRUCTION OPERAND    COMMENT

    000011E4 <00000000>             .DATA.L     _symtab
    000011E8 <00000000>             .DATA.L     _reciprocate
    000011EC <00000000>             .DATA.L     _one
    000011F0 <00000000>             .DATA.L     _equaln
    000011F4 <00000000>             .DATA.L     _p3
    000011F8              L1497:                            
    000011F8 926C                   MOV.W       L1609,R2   ; H'0570
    000011FA D137                   MOV.L       L1609+4,R1 ; _symtab
    000011FC 6312                   MOV.L       @R1,R3
    000011FE 332C                   ADD         R2,R3
    00001200              L1502:                            
    00001200 61F6                   MOV.L       @R15+,R1
    00001202 2132                   MOV.L       R3,@R1
        simfac.c   252                                            push(cadr(p1));
    00001204 64C2                   MOV.L       @R12,R4
    00001206 8448                   MOV.B       @(8,R4),R0
    00001208 2008                   TST         R0,R0
    0000120A 8B02                   BF          L1504
    0000120C 64C2                   MOV.L       @R12,R4
    0000120E A004                   BRA         L1506
    00001210 5441                   MOV.L       @(4,R4),R4
    00001212              L1504:                            
    00001212 935F                   MOV.W       L1609,R3   ; H'0570
    00001214 D230                   MOV.L       L1609+4,R2 ; _symtab
    00001216 6422                   MOV.L       @R2,R4
    00001218 343C                   ADD         R3,R4
    0000121A              L1506:                            
    0000121A 8448                   MOV.B       @(8,R4),R0
    0000121C 2008                   TST         R0,R0
    0000121E 8B0C                   BF          L1503
    00001220 64C2                   MOV.L       @R12,R4
    00001222 8448                   MOV.B       @(8,R4),R0
    00001224 2008                   TST         R0,R0
    00001226 8B02                   BF          L1505
    00001228 64C2                   MOV.L       @R12,R4
    0000122A A004                   BRA         L1507
    0000122C 5441                   MOV.L       @(4,R4),R4
    0000122E              L1505:                            
    0000122E 9351                   MOV.W       L1609,R3   ; H'0570
    00001230 D229                   MOV.L       L1609+4,R2 ; _symtab
    00001232 6422                   MOV.L       @R2,R4
    00001234 343C                   ADD         R3,R4
    00001236              L1507:                            
    00001236 A004                   BRA         L1508
    00001238 6442                   MOV.L       @R4,R4
    0000123A              L1503:                            
    0000123A 934B                   MOV.W       L1609,R3   ; H'0570
    0000123C D226                   MOV.L       L1609+4,R2 ; _symtab
    0000123E 6422                   MOV.L       @R2,R4
    00001240 343C                   ADD         R3,R4
    00001242              L1508:                            
    00001242 4B0B                   JSR         @R11
    00001244 0009                   NOP
        simfac.c   253                                            push_integer(-1);
    00001246 D325                   MOV.L       L1609+8,R3 ; _push_integer
    00001248 430B                   JSR         @R3
    0000124A E4FF                   MOV         #-1,R4




SH SERIES C/C++ Compiler (Ver. 6.0C)                                                                 30-Jul-2013 13:37:29  PAGE   52


SCT OFFSET   CODE       C LABEL     INSTRUCTION OPERAND    COMMENT

        simfac.c   254                                            add();
    0000124C D224                   MOV.L       L1609+12,R2; _add
    0000124E 420B                   JSR         @R2
    00001250 0009                   NOP
    00001252 A160                   BRA         L1117
    00001254 0009                   NOP
    00001256              L1496:                            
        simfac.c   255                                            stack[j] = pop();
        simfac.c   256                                            return 1;
        simfac.c   257                                    }
        simfac.c   258                                    if (equaln(p3, -2)) {
    00001256 E5FE                   MOV         #-2,R5
    00001258 D222                   MOV.L       L1609+16,R2; _p3
    0000125A 4D0B                   JSR         @R13
    0000125C 6422                   MOV.L       @R2,R4
    0000125E 2008                   TST         R0,R0
    00001260 8B01                   BF          L1610
    00001262 A162                   BRA         L1189
    00001264 0009                   NOP
    00001266              L1610:                            
        simfac.c   259                                            push(car(cdr(cadr(p2))));
    00001266 64E2                   MOV.L       @R14,R4
    00001268 8448                   MOV.B       @(8,R4),R0
    0000126A 2008                   TST         R0,R0
    0000126C 8B02                   BF          L1513
    0000126E 64E2                   MOV.L       @R14,R4
    00001270 A004                   BRA         L1525
    00001272 5441                   MOV.L       @(4,R4),R4
    00001274              L1513:                            
    00001274 932E                   MOV.W       L1609,R3   ; H'0570
    00001276 D218                   MOV.L       L1609+4,R2 ; _symtab
    00001278 6422                   MOV.L       @R2,R4
    0000127A 343C                   ADD         R3,R4
    0000127C              L1525:                            
    0000127C 8448                   MOV.B       @(8,R4),R0
    0000127E 2008                   TST         R0,R0
    00001280 8B0C                   BF          L1512
    00001282 64E2                   MOV.L       @R14,R4
    00001284 8448                   MOV.B       @(8,R4),R0
    00001286 2008                   TST         R0,R0
    00001288 8B02                   BF          L1514
    0000128A 64E2                   MOV.L       @R14,R4
    0000128C A004                   BRA         L1526
    0000128E 5441                   MOV.L       @(4,R4),R4
    00001290              L1514:                            
    00001290 9320                   MOV.W       L1609,R3   ; H'0570
    00001292 D211                   MOV.L       L1609+4,R2 ; _symtab
    00001294 6422                   MOV.L       @R2,R4
    00001296 343C                   ADD         R3,R4
    00001298              L1526:                            
    00001298 A004                   BRA         L1527
    0000129A 6442                   MOV.L       @R4,R4
    0000129C              L1512:                            
    0000129C 931A                   MOV.W       L1609,R3   ; H'0570
    0000129E D20E                   MOV.L       L1609+4,R2 ; _symtab
    000012A0 6422                   MOV.L       @R2,R4
    000012A2 343C                   ADD         R3,R4




SH SERIES C/C++ Compiler (Ver. 6.0C)                                                                 30-Jul-2013 13:37:29  PAGE   53


SCT OFFSET   CODE       C LABEL     INSTRUCTION OPERAND    COMMENT

    000012A4              L1527:                            
    000012A4 8448                   MOV.B       @(8,R4),R0
    000012A6 2008                   TST         R0,R0
    000012A8 8B2A                   BF          L1511
    000012AA 64E2                   MOV.L       @R14,R4
    000012AC 8448                   MOV.B       @(8,R4),R0
    000012AE 2008                   TST         R0,R0
    000012B0 8B02                   BF          L1516
    000012B2 64E2                   MOV.L       @R14,R4
    000012B4 A004                   BRA         L1528
    000012B6 5441                   MOV.L       @(4,R4),R4
    000012B8              L1516:                            
    000012B8 930C                   MOV.W       L1609,R3   ; H'0570
    000012BA D207                   MOV.L       L1609+4,R2 ; _symtab
    000012BC 6422                   MOV.L       @R2,R4
    000012BE 343C                   ADD         R3,R4
    000012C0              L1528:                            
    000012C0 8448                   MOV.B       @(8,R4),R0
    000012C2 2008                   TST         R0,R0
    000012C4 8B16                   BF          L1515
    000012C6 64E2                   MOV.L       @R14,R4
    000012C8 8448                   MOV.B       @(8,R4),R0
    000012CA 2008                   TST         R0,R0
    000012CC 8B0C                   BF          L1517
    000012CE 64E2                   MOV.L       @R14,R4
    000012D0 A00E                   BRA         L1529
    000012D2 5441                   MOV.L       @(4,R4),R4
    000012D4              L1609:                            
    000012D4 0570                   .DATA.W     H'0570
    000012D6 0000                   .DATA.W     0
    000012D8 <00000000>             .DATA.L     _symtab
    000012DC <00000000>             .DATA.L     _push_integer
    000012E0 <00000000>             .DATA.L     _add
    000012E4 <00000000>             .DATA.L     _p3
    000012E8              L1517:                            
    000012E8 935A                   MOV.W       L1611,R3   ; H'0570
    000012EA D22E                   MOV.L       L1611+4,R2 ; _symtab
    000012EC 6422                   MOV.L       @R2,R4
    000012EE 343C                   ADD         R3,R4
    000012F0              L1529:                            
    000012F0 A004                   BRA         L1530
    000012F2 6442                   MOV.L       @R4,R4
    000012F4              L1515:                            
    000012F4 9354                   MOV.W       L1611,R3   ; H'0570
    000012F6 D22B                   MOV.L       L1611+4,R2 ; _symtab
    000012F8 6422                   MOV.L       @R2,R4
    000012FA 343C                   ADD         R3,R4
    000012FC              L1530:                            
    000012FC A004                   BRA         L1531
    000012FE 5441                   MOV.L       @(4,R4),R4
    00001300              L1511:                            
    00001300 934E                   MOV.W       L1611,R3   ; H'0570
    00001302 D228                   MOV.L       L1611+4,R2 ; _symtab
    00001304 6422                   MOV.L       @R2,R4
    00001306 343C                   ADD         R3,R4
    00001308              L1531:                            
    00001308 8448                   MOV.B       @(8,R4),R0




SH SERIES C/C++ Compiler (Ver. 6.0C)                                                                 30-Jul-2013 13:37:29  PAGE   54


SCT OFFSET   CODE       C LABEL     INSTRUCTION OPERAND    COMMENT

    0000130A 2008                   TST         R0,R0
    0000130C 8B4C                   BF          L1510
    0000130E 64E2                   MOV.L       @R14,R4
    00001310 8448                   MOV.B       @(8,R4),R0
    00001312 2008                   TST         R0,R0
    00001314 8B02                   BF          L1520
    00001316 64E2                   MOV.L       @R14,R4
    00001318 A004                   BRA         L1532
    0000131A 5441                   MOV.L       @(4,R4),R4
    0000131C              L1520:                            
    0000131C 9340                   MOV.W       L1611,R3   ; H'0570
    0000131E D221                   MOV.L       L1611+4,R2 ; _symtab
    00001320 6422                   MOV.L       @R2,R4
    00001322 343C                   ADD         R3,R4
    00001324              L1532:                            
    00001324 8448                   MOV.B       @(8,R4),R0
    00001326 2008                   TST         R0,R0
    00001328 8B0C                   BF          L1519
    0000132A 64E2                   MOV.L       @R14,R4
    0000132C 8448                   MOV.B       @(8,R4),R0
    0000132E 2008                   TST         R0,R0
    00001330 8B02                   BF          L1521
    00001332 64E2                   MOV.L       @R14,R4
    00001334 A004                   BRA         L1533
    00001336 5441                   MOV.L       @(4,R4),R4
    00001338              L1521:                            
    00001338 9332                   MOV.W       L1611,R3   ; H'0570
    0000133A D21A                   MOV.L       L1611+4,R2 ; _symtab
    0000133C 6422                   MOV.L       @R2,R4
    0000133E 343C                   ADD         R3,R4
    00001340              L1533:                            
    00001340 A004                   BRA         L1534
    00001342 6442                   MOV.L       @R4,R4
    00001344              L1519:                            
    00001344 932C                   MOV.W       L1611,R3   ; H'0570
    00001346 D217                   MOV.L       L1611+4,R2 ; _symtab
    00001348 6422                   MOV.L       @R2,R4
    0000134A 343C                   ADD         R3,R4
    0000134C              L1534:                            
    0000134C 8448                   MOV.B       @(8,R4),R0
    0000134E 2008                   TST         R0,R0
    00001350 8B20                   BF          L1518
    00001352 64E2                   MOV.L       @R14,R4
    00001354 8448                   MOV.B       @(8,R4),R0
    00001356 2008                   TST         R0,R0
    00001358 8B02                   BF          L1523
    0000135A 64E2                   MOV.L       @R14,R4
    0000135C A004                   BRA         L1535
    0000135E 5441                   MOV.L       @(4,R4),R4
    00001360              L1523:                            
    00001360 931E                   MOV.W       L1611,R3   ; H'0570
    00001362 D210                   MOV.L       L1611+4,R2 ; _symtab
    00001364 6422                   MOV.L       @R2,R4
    00001366 343C                   ADD         R3,R4
    00001368              L1535:                            
    00001368 8448                   MOV.B       @(8,R4),R0
    0000136A 2008                   TST         R0,R0




SH SERIES C/C++ Compiler (Ver. 6.0C)                                                                 30-Jul-2013 13:37:29  PAGE   55


SCT OFFSET   CODE       C LABEL     INSTRUCTION OPERAND    COMMENT

    0000136C 8B0C                   BF          L1522
    0000136E 64E2                   MOV.L       @R14,R4
    00001370 8448                   MOV.B       @(8,R4),R0
    00001372 2008                   TST         R0,R0
    00001374 8B02                   BF          L1524
    00001376 64E2                   MOV.L       @R14,R4
    00001378 A004                   BRA         L1536
    0000137A 5441                   MOV.L       @(4,R4),R4
    0000137C              L1524:                            
    0000137C 9310                   MOV.W       L1611,R3   ; H'0570
    0000137E D209                   MOV.L       L1611+4,R2 ; _symtab
    00001380 6422                   MOV.L       @R2,R4
    00001382 343C                   ADD         R3,R4
    00001384              L1536:                            
    00001384 A004                   BRA         L1537
    00001386 6442                   MOV.L       @R4,R4
    00001388              L1522:                            
    00001388 930A                   MOV.W       L1611,R3   ; H'0570
    0000138A D206                   MOV.L       L1611+4,R2 ; _symtab
    0000138C 6422                   MOV.L       @R2,R4
    0000138E 343C                   ADD         R3,R4
    00001390              L1537:                            
    00001390 A004                   BRA         L1538
    00001392 5441                   MOV.L       @(4,R4),R4
    00001394              L1518:                            
    00001394 9304                   MOV.W       L1611,R3   ; H'0570
    00001396 D203                   MOV.L       L1611+4,R2 ; _symtab
    00001398 6422                   MOV.L       @R2,R4
    0000139A 343C                   ADD         R3,R4
    0000139C              L1538:                            
    0000139C A008                   BRA         L1539
    0000139E 6442                   MOV.L       @R4,R4
    000013A0              L1611:                            
    000013A0 0570                   .DATA.W     H'0570
    000013A2 0000                   .DATA.W     0
    000013A4 <00000000>             .DATA.L     _symtab
    000013A8              L1510:                            
    000013A8 935E                   MOV.W       L1612,R3   ; H'0570
    000013AA D230                   MOV.L       L1612+4,R2 ; _symtab
    000013AC 6422                   MOV.L       @R2,R4
    000013AE 343C                   ADD         R3,R4
    000013B0              L1539:                            
    000013B0 4B0B                   JSR         @R11
    000013B2 0009                   NOP
        simfac.c   260                                            reciprocate();
    000013B4 D32E                   MOV.L       L1612+8,R3 ; _reciprocate
    000013B6 430B                   JSR         @R3
    000013B8 0009                   NOP
        simfac.c   261                                            stack[i] = pop();
    000013BA 60A2                   MOV.L       @R10,R0
    000013BC 309C                   ADD         R9,R0
    000013BE 480B                   JSR         @R8
    000013C0 2F06                   MOV.L       R0,@-R15
    000013C2 62F6                   MOV.L       @R15+,R2
    000013C4 2202                   MOV.L       R0,@R2
        simfac.c   262                                            push(car(cdr(cadr(p2))));
    000013C6 64E2                   MOV.L       @R14,R4




SH SERIES C/C++ Compiler (Ver. 6.0C)                                                                 30-Jul-2013 13:37:29  PAGE   56


SCT OFFSET   CODE       C LABEL     INSTRUCTION OPERAND    COMMENT

    000013C8 8448                   MOV.B       @(8,R4),R0
    000013CA 2008                   TST         R0,R0
    000013CC 8B02                   BF          L1543
    000013CE 64E2                   MOV.L       @R14,R4
    000013D0 A004                   BRA         L1555
    000013D2 5441                   MOV.L       @(4,R4),R4
    000013D4              L1543:                            
    000013D4 9348                   MOV.W       L1612,R3   ; H'0570
    000013D6 D225                   MOV.L       L1612+4,R2 ; _symtab
    000013D8 6422                   MOV.L       @R2,R4
    000013DA 343C                   ADD         R3,R4
    000013DC              L1555:                            
    000013DC 8448                   MOV.B       @(8,R4),R0
    000013DE 2008                   TST         R0,R0
    000013E0 8B0C                   BF          L1542
    000013E2 64E2                   MOV.L       @R14,R4
    000013E4 8448                   MOV.B       @(8,R4),R0
    000013E6 2008                   TST         R0,R0
    000013E8 8B02                   BF          L1544
    000013EA 64E2                   MOV.L       @R14,R4
    000013EC A004                   BRA         L1556
    000013EE 5441                   MOV.L       @(4,R4),R4
    000013F0              L1544:                            
    000013F0 933A                   MOV.W       L1612,R3   ; H'0570
    000013F2 D21E                   MOV.L       L1612+4,R2 ; _symtab
    000013F4 6422                   MOV.L       @R2,R4
    000013F6 343C                   ADD         R3,R4
    000013F8              L1556:                            
    000013F8 A004                   BRA         L1557
    000013FA 6442                   MOV.L       @R4,R4
    000013FC              L1542:                            
    000013FC 9334                   MOV.W       L1612,R3   ; H'0570
    000013FE D21B                   MOV.L       L1612+4,R2 ; _symtab
    00001400 6422                   MOV.L       @R2,R4
    00001402 343C                   ADD         R3,R4
    00001404              L1557:                            
    00001404 8448                   MOV.B       @(8,R4),R0
    00001406 2008                   TST         R0,R0
    00001408 8B20                   BF          L1541
    0000140A 64E2                   MOV.L       @R14,R4
    0000140C 8448                   MOV.B       @(8,R4),R0
    0000140E 2008                   TST         R0,R0
    00001410 8B02                   BF          L1546
    00001412 64E2                   MOV.L       @R14,R4
    00001414 A004                   BRA         L1558
    00001416 5441                   MOV.L       @(4,R4),R4
    00001418              L1546:                            
    00001418 9326                   MOV.W       L1612,R3   ; H'0570
    0000141A D214                   MOV.L       L1612+4,R2 ; _symtab
    0000141C 6422                   MOV.L       @R2,R4
    0000141E 343C                   ADD         R3,R4
    00001420              L1558:                            
    00001420 8448                   MOV.B       @(8,R4),R0
    00001422 2008                   TST         R0,R0
    00001424 8B0C                   BF          L1545
    00001426 64E2                   MOV.L       @R14,R4
    00001428 8448                   MOV.B       @(8,R4),R0




SH SERIES C/C++ Compiler (Ver. 6.0C)                                                                 30-Jul-2013 13:37:29  PAGE   57


SCT OFFSET   CODE       C LABEL     INSTRUCTION OPERAND    COMMENT

    0000142A 2008                   TST         R0,R0
    0000142C 8B02                   BF          L1547
    0000142E 64E2                   MOV.L       @R14,R4
    00001430 A004                   BRA         L1559
    00001432 5441                   MOV.L       @(4,R4),R4
    00001434              L1547:                            
    00001434 9318                   MOV.W       L1612,R3   ; H'0570
    00001436 D20D                   MOV.L       L1612+4,R2 ; _symtab
    00001438 6422                   MOV.L       @R2,R4
    0000143A 343C                   ADD         R3,R4
    0000143C              L1559:                            
    0000143C A004                   BRA         L1560
    0000143E 6442                   MOV.L       @R4,R4
    00001440              L1545:                            
    00001440 9312                   MOV.W       L1612,R3   ; H'0570
    00001442 D20A                   MOV.L       L1612+4,R2 ; _symtab
    00001444 6422                   MOV.L       @R2,R4
    00001446 343C                   ADD         R3,R4
    00001448              L1560:                            
    00001448 A004                   BRA         L1561
    0000144A 5441                   MOV.L       @(4,R4),R4
    0000144C              L1541:                            
    0000144C 930C                   MOV.W       L1612,R3   ; H'0570
    0000144E D207                   MOV.L       L1612+4,R2 ; _symtab
    00001450 6422                   MOV.L       @R2,R4
    00001452 343C                   ADD         R3,R4
    00001454              L1561:                            
    00001454 8448                   MOV.B       @(8,R4),R0
    00001456 2008                   TST         R0,R0
    00001458 8B4E                   BF          L1540
    0000145A 64E2                   MOV.L       @R14,R4
    0000145C 8448                   MOV.B       @(8,R4),R0
    0000145E 2008                   TST         R0,R0
    00001460 8B08                   BF          L1550
    00001462 64E2                   MOV.L       @R14,R4
    00001464 A00A                   BRA         L1562
    00001466 5441                   MOV.L       @(4,R4),R4
    00001468              L1612:                            
    00001468 0570                   .DATA.W     H'0570
    0000146A 0000                   .DATA.W     0
    0000146C <00000000>             .DATA.L     _symtab
    00001470 <00000000>             .DATA.L     _reciprocate
    00001474              L1550:                            
    00001474 937A                   MOV.W       L1613,R3   ; H'0570
    00001476 D23E                   MOV.L       L1613+4,R2 ; _symtab
    00001478 6422                   MOV.L       @R2,R4
    0000147A 343C                   ADD         R3,R4
    0000147C              L1562:                            
    0000147C 8448                   MOV.B       @(8,R4),R0
    0000147E 2008                   TST         R0,R0
    00001480 8B0C                   BF          L1549
    00001482 64E2                   MOV.L       @R14,R4
    00001484 8448                   MOV.B       @(8,R4),R0
    00001486 2008                   TST         R0,R0
    00001488 8B02                   BF          L1551
    0000148A 64E2                   MOV.L       @R14,R4
    0000148C A004                   BRA         L1563




SH SERIES C/C++ Compiler (Ver. 6.0C)                                                                 30-Jul-2013 13:37:29  PAGE   58


SCT OFFSET   CODE       C LABEL     INSTRUCTION OPERAND    COMMENT

    0000148E 5441                   MOV.L       @(4,R4),R4
    00001490              L1551:                            
    00001490 936C                   MOV.W       L1613,R3   ; H'0570
    00001492 D237                   MOV.L       L1613+4,R2 ; _symtab
    00001494 6422                   MOV.L       @R2,R4
    00001496 343C                   ADD         R3,R4
    00001498              L1563:                            
    00001498 A004                   BRA         L1564
    0000149A 6442                   MOV.L       @R4,R4
    0000149C              L1549:                            
    0000149C 9366                   MOV.W       L1613,R3   ; H'0570
    0000149E D234                   MOV.L       L1613+4,R2 ; _symtab
    000014A0 6422                   MOV.L       @R2,R4
    000014A2 343C                   ADD         R3,R4
    000014A4              L1564:                            
    000014A4 8448                   MOV.B       @(8,R4),R0
    000014A6 2008                   TST         R0,R0
    000014A8 8B20                   BF          L1548
    000014AA 64E2                   MOV.L       @R14,R4
    000014AC 8448                   MOV.B       @(8,R4),R0
    000014AE 2008                   TST         R0,R0
    000014B0 8B02                   BF          L1553
    000014B2 64E2                   MOV.L       @R14,R4
    000014B4 A004                   BRA         L1565
    000014B6 5441                   MOV.L       @(4,R4),R4
    000014B8              L1553:                            
    000014B8 9358                   MOV.W       L1613,R3   ; H'0570
    000014BA D22D                   MOV.L       L1613+4,R2 ; _symtab
    000014BC 6422                   MOV.L       @R2,R4
    000014BE 343C                   ADD         R3,R4
    000014C0              L1565:                            
    000014C0 8448                   MOV.B       @(8,R4),R0
    000014C2 2008                   TST         R0,R0
    000014C4 8B0C                   BF          L1552
    000014C6 64E2                   MOV.L       @R14,R4
    000014C8 8448                   MOV.B       @(8,R4),R0
    000014CA 2008                   TST         R0,R0
    000014CC 8B02                   BF          L1554
    000014CE 64E2                   MOV.L       @R14,R4
    000014D0 A004                   BRA         L1566
    000014D2 5441                   MOV.L       @(4,R4),R4
    000014D4              L1554:                            
    000014D4 934A                   MOV.W       L1613,R3   ; H'0570
    000014D6 D226                   MOV.L       L1613+4,R2 ; _symtab
    000014D8 6422                   MOV.L       @R2,R4
    000014DA 343C                   ADD         R3,R4
    000014DC              L1566:                            
    000014DC A004                   BRA         L1567
    000014DE 6442                   MOV.L       @R4,R4
    000014E0              L1552:                            
    000014E0 9344                   MOV.W       L1613,R3   ; H'0570
    000014E2 D223                   MOV.L       L1613+4,R2 ; _symtab
    000014E4 6422                   MOV.L       @R2,R4
    000014E6 343C                   ADD         R3,R4
    000014E8              L1567:                            
    000014E8 A004                   BRA         L1568
    000014EA 5441                   MOV.L       @(4,R4),R4




SH SERIES C/C++ Compiler (Ver. 6.0C)                                                                 30-Jul-2013 13:37:29  PAGE   59


SCT OFFSET   CODE       C LABEL     INSTRUCTION OPERAND    COMMENT

    000014EC              L1548:                            
    000014EC 933E                   MOV.W       L1613,R3   ; H'0570
    000014EE D220                   MOV.L       L1613+4,R2 ; _symtab
    000014F0 6422                   MOV.L       @R2,R4
    000014F2 343C                   ADD         R3,R4
    000014F4              L1568:                            
    000014F4 A004                   BRA         L1569
    000014F6 6442                   MOV.L       @R4,R4
    000014F8              L1540:                            
    000014F8 9338                   MOV.W       L1613,R3   ; H'0570
    000014FA D21D                   MOV.L       L1613+4,R2 ; _symtab
    000014FC 6422                   MOV.L       @R2,R4
    000014FE 343C                   ADD         R3,R4
    00001500              L1569:                            
    00001500 4B0B                   JSR         @R11
    00001502 0009                   NOP
        simfac.c   263                                            push_integer(-1);
    00001504 D31B                   MOV.L       L1613+8,R3 ; _push_integer
    00001506 430B                   JSR         @R3
    00001508 E4FF                   MOV         #-1,R4
        simfac.c   264                                            add();
    0000150A D21B                   MOV.L       L1613+12,R2; _add
    0000150C 420B                   JSR         @R2
    0000150E 0009                   NOP
        simfac.c   265                                            reciprocate();
    00001510 D31A                   MOV.L       L1613+16,R3; _reciprocate
    00001512 430B                   JSR         @R3
    00001514 0009                   NOP
    00001516              L1117:
        simfac.c   266                                            stack[j] = pop();
    00001516 62F2                   MOV.L       @R15,R2
    00001518 60A2                   MOV.L       @R10,R0
    0000151A 4208                   SHLL2       R2
    0000151C 302C                   ADD         R2,R0
    0000151E 480B                   JSR         @R8
    00001520 2F06                   MOV.L       R0,@-R15
    00001522 63F6                   MOV.L       @R15+,R3
    00001524 2302                   MOV.L       R0,@R3
        simfac.c   267                                            return 1;
    00001526              L1572:                            
    00001526 A017                   BRA         L1227
    00001528 E001                   MOV         #1,R0
    0000152A              L1189:                            
    0000152A 62F2                   MOV.L       @R15,R2
    0000152C 7201                   ADD         #1,R2
    0000152E              L1573:                            
    0000152E 2F22                   MOV.L       R2,@R15
    00001530 D213                   MOV.L       L1613+20,R2; _tos
    00001532 6322                   MOV.L       @R2,R3
    00001534 61F2                   MOV.L       @R15,R1
    00001536 3133                   CMP/GE      R3,R1
    00001538 8902                   BT          L1614
    0000153A D112                   MOV.L       L1613+24,R1; L1187
    0000153C 412B                   JMP         @R1
    0000153E 0009                   NOP
    00001540              L1614:                            
    00001540 53F1                   MOV.L       @(4,R15),R3




SH SERIES C/C++ Compiler (Ver. 6.0C)                                                                 30-Jul-2013 13:37:29  PAGE   60


SCT OFFSET   CODE       C LABEL     INSTRUCTION OPERAND    COMMENT

    00001542 7301                   ADD         #1,R3
    00001544              L1574:                            
    00001544 1F31                   MOV.L       R3,@(4,R15)
    00001546 D30E                   MOV.L       L1613+20,R3; _tos
    00001548 51F1                   MOV.L       @(4,R15),R1
    0000154A 6232                   MOV.L       @R3,R2
    0000154C 3123                   CMP/GE      R2,R1
    0000154E 8902                   BT          L1615
    00001550 D10D                   MOV.L       L1613+28,R1; L1185
    00001552 412B                   JMP         @R1
    00001554 0009                   NOP
    00001556              L1615:                            
        simfac.c   268                                    }
        simfac.c   269                            }
        simfac.c   270                    }
        simfac.c   271            }
        simfac.c   272    
        simfac.c   273            return 0;
    00001556 E000                   MOV         #0,R0
        simfac.c   274    }
    00001558              L1227:                            
    00001558 7F18                   ADD         #24,R15
    0000155A 4F26                   LDS.L       @R15+,PR
    0000155C 68F6                   MOV.L       @R15+,R8
    0000155E 69F6                   MOV.L       @R15+,R9
    00001560 6AF6                   MOV.L       @R15+,R10
    00001562 6BF6                   MOV.L       @R15+,R11
    00001564 6CF6                   MOV.L       @R15+,R12
    00001566 6DF6                   MOV.L       @R15+,R13
    00001568 000B                   RTS
    0000156A 6EF6                   MOV.L       @R15+,R14
    0000156C              L1613:                            
    0000156C 0570                   .DATA.W     H'0570
    0000156E 0000                   .DATA.W     0
    00001570 <00000000>             .DATA.L     _symtab
    00001574 <00000000>             .DATA.L     _push_integer
    00001578 <00000000>             .DATA.L     _add
    0000157C <00000000>             .DATA.L     _reciprocate
    00001580 <00000000>             .DATA.L     _tos
    00001584 <00000000>             .DATA.L     L1187
    00001588 <00000000>             .DATA.L     L1185




















SH SERIES C/C++ Compiler (Ver. 6.0C)                                                                 30-Jul-2013 13:37:29  PAGE    1


******** STATISTICS INFORMATION ********


********** ERROR INFORMATION ***********

NUMBER OF ERRORS:           0
NUMBER OF WARNINGS:         0




******* SOURCE LINE INFORMATION ********

COMPILED SOURCE LINE:      274



******* SECTION SIZE INFORMATION *******

PROGRAM  SECTION (P):                               0000158C Byte(s)
CONSTANT SECTION (C):                               00000000 Byte(s)
DATA     SECTION (D):                               00000000 Byte(s)
BSS      SECTION (B):                               00000000 Byte(s)

 TOTAL PROGRAM SIZE: 0000158C Byte(s)



********** LABEL INFORMATION ***********

NUMBER OF EXTERNAL REFERENCE SYMBOLS:           23
NUMBER OF EXTERNAL DEFINITION SYMBOLS:           2
NUMBER OF INTERNAL/EXTERNAL SYMBOLS:           483






























*** COMMAND PARAMETER ***


  -subcommand=C:\Users\ADMINI~1\AppData\Local\Temp\hmkDAD3.tmp 

