SH SERIES C/C++ Compiler (Ver. 6.0C)                                                                 30-Jul-2013 13:37:32  PAGE    1

************ OBJECT LISTING ************

FILE NAME: E:\Anderain\fx-9860\fxTaumath\Taumath.c

SCT OFFSET   CODE       C LABEL     INSTRUCTION OPERAND    COMMENT

       Taumath.c     1    #include <fxlib.h>
       Taumath.c     2    #include <stdio.h>
       Taumath.c     3    #include <setjmp.h>
       Taumath.c     4    #include "defs.h"
       Taumath.c     5    #include "dconsole.h"
       Taumath.c     6    
       Taumath.c     7    #define EXPR_BUF_SIZE 256
       Taumath.c     8    
       Taumath.c     9    extern U ** mem;
       Taumath.c    10    extern unsigned int **free_stack;
       Taumath.c    11    
       Taumath.c    12    int
       Taumath.c    13    initialize_tuamath()
P   00000000              _initialize_tuamath:             ; function: initialize_tuamath
                                                           ; frame size=12
    00000000 2FE6                   MOV.L       R14,@-R15
       Taumath.c    14    {
       Taumath.c    15            // modified by anderain 
       Taumath.c    16            free_stack      = (unsigned int**)      calloc(500/*1000*/,sizeof(unsigned int*));
    00000002 E504                   MOV         #4,R5
    00000004 2FD6                   MOV.L       R13,@-R15
    00000006 4F22                   STS.L       PR,@-R15
    00000008 9D79                   MOV.W       L1164,R13  ; H'01F4
    0000000A DE3E                   MOV.L       L1164+6,R14; _calloc
    0000000C 4E0B                   JSR         @R14
    0000000E 64D3                   MOV         R13,R4
    00000010 D33D                   MOV.L       L1164+10,R3; _free_stack
       Taumath.c    17            mem                     = (U**)                         calloc(100 /*M*/,sizeof(U*));
    00000012 E504                   MOV         #4,R5
    00000014 2302                   MOV.L       R0,@R3
    00000016 4E0B                   JSR         @R14
    00000018 E464                   MOV         #100,R4
       Taumath.c    18            stack           = (U**)                         calloc(TOS,sizeof(U*));
    0000001A E504                   MOV         #4,R5
    0000001C D23B                   MOV.L       L1164+14,R2; _mem
    0000001E 2202                   MOV.L       R0,@R2
    00000020 4E0B                   JSR         @R14
    00000022 64D3                   MOV         R13,R4
    00000024 D33A                   MOV.L       L1164+18,R3; _stack
       Taumath.c    19            symtab          = (U*)                          calloc(NSYM,sizeof(U));
    00000026 E50C                   MOV         #12,R5
    00000028 2302                   MOV.L       R0,@R3
    0000002A 4E0B                   JSR         @R14
    0000002C 64D3                   MOV         R13,R4
       Taumath.c    20            binding         = (U**)                         calloc(NSYM,sizeof(U*));
    0000002E E504                   MOV         #4,R5
    00000030 D238                   MOV.L       L1164+22,R2; _symtab
    00000032 2202                   MOV.L       R0,@R2
    00000034 4E0B                   JSR         @R14
    00000036 64D3                   MOV         R13,R4
    00000038 D337                   MOV.L       L1164+26,R3; _binding
       Taumath.c    21            arglist         = (U**)                         calloc(NSYM,sizeof(U*));
    0000003A E504                   MOV         #4,R5
    0000003C 2302                   MOV.L       R0,@R3




SH SERIES C/C++ Compiler (Ver. 6.0C)                                                                 30-Jul-2013 13:37:32  PAGE    2


SCT OFFSET   CODE       C LABEL     INSTRUCTION OPERAND    COMMENT

    0000003E 4E0B                   JSR         @R14
    00000040 64D3                   MOV         R13,R4
    00000042 D236                   MOV.L       L1164+30,R2; _arglist
       Taumath.c    22            logbuf          = (char*)                       calloc(256,1);
    00000044 945C                   MOV.W       L1164+2,R4 ; H'0100
    00000046 2202                   MOV.L       R0,@R2
    00000048 4E0B                   JSR         @R14
    0000004A E501                   MOV         #1,R5
    0000004C D334                   MOV.L       L1164+34,R3; _logbuf
    0000004E 2302                   MOV.L       R0,@R3
       Taumath.c    23    }
    00000050 4F26                   LDS.L       @R15+,PR
    00000052 6DF6                   MOV.L       @R15+,R13
    00000054 000B                   RTS
    00000056 6EF6                   MOV.L       @R15+,R14
       Taumath.c    24    
       Taumath.c    25    
       Taumath.c    26    int AddIn_main(int isAppli, unsigned short OptionNum)
    00000058              _AddIn_main:                     ; function: AddIn_main
                                                           ; frame size=300
    00000058 2FE6                   MOV.L       R14,@-R15
    0000005A 2FD6                   MOV.L       R13,@-R15
    0000005C 2FC6                   MOV.L       R12,@-R15
    0000005E 2FB6                   MOV.L       R11,@-R15
    00000060 2FA6                   MOV.L       R10,@-R15
    00000062 2F96                   MOV.L       R9,@-R15
    00000064 2F86                   MOV.L       R8,@-R15
    00000066 4F22                   STS.L       PR,@-R15
    00000068 904B                   MOV.W       L1164+4,R0 ; H'FEFC
    0000006A 3F0C                   ADD         R0,R15
       Taumath.c    27    {
       Taumath.c    28            unsigned int    key;
       Taumath.c    29            char                    expr[EXPR_BUF_SIZE];
       Taumath.c    30    
       Taumath.c    31            initialize_tuamath();
    0000006C BFC8                   BSR         _initialize_tuamath
    0000006E 0009                   NOP
       Taumath.c    32            // initialize failed ?
       Taumath.c    33            if (!(free_stack && mem && stack && symtab && binding && arglist && logbuf))
    00000070 D225                   MOV.L       L1164+10,R2; _free_stack
    00000072 6122                   MOV.L       @R2,R1
    00000074 2118                   TST         R1,R1
    00000076 8917                   BT          L1157
    00000078 D324                   MOV.L       L1164+14,R3; _mem
    0000007A 6132                   MOV.L       @R3,R1
    0000007C 2118                   TST         R1,R1
    0000007E 8913                   BT          L1157
    00000080 D023                   MOV.L       L1164+18,R0; _stack
    00000082 6102                   MOV.L       @R0,R1
    00000084 2118                   TST         R1,R1
    00000086 890F                   BT          L1157
    00000088 D322                   MOV.L       L1164+22,R3; _symtab
    0000008A 6132                   MOV.L       @R3,R1
    0000008C 2118                   TST         R1,R1
    0000008E 890B                   BT          L1157
    00000090 D121                   MOV.L       L1164+26,R1; _binding
    00000092 6212                   MOV.L       @R1,R2




SH SERIES C/C++ Compiler (Ver. 6.0C)                                                                 30-Jul-2013 13:37:32  PAGE    3


SCT OFFSET   CODE       C LABEL     INSTRUCTION OPERAND    COMMENT

    00000094 2228                   TST         R2,R2
    00000096 8907                   BT          L1157
    00000098 D320                   MOV.L       L1164+30,R3; _arglist
    0000009A 6232                   MOV.L       @R3,R2
    0000009C 2228                   TST         R2,R2
    0000009E 8903                   BT          L1157
    000000A0 D11F                   MOV.L       L1164+34,R1; _logbuf
    000000A2 6212                   MOV.L       @R1,R2
    000000A4 2228                   TST         R2,R2
    000000A6 8B01                   BF          L1156
    000000A8              L1157:                            
       Taumath.c    34                    return 0;
    000000A8 A050                   BRA         L1158
    000000AA E000                   MOV         #0,R0
    000000AC              L1156:                            
       Taumath.c    35    
       Taumath.c    36        Bdisp_AllClr_DDVRAM();
    000000AC D31D                   MOV.L       L1164+38,R3; _Bdisp_AllClr_DDVRAM
    000000AE 430B                   JSR         @R3
    000000B0 0009                   NOP
       Taumath.c    37    
       Taumath.c    38            puts("eigenmath-FX 1.0");
    000000B2 DD1D                   MOV.L       L1164+42,R13; _dPuts
    000000B4 D41D                   MOV.L       L1164+46,R4; L1140
    000000B6 4D0B                   JSR         @R13
    000000B8 0009                   NOP
       Taumath.c    39            puts("  ported by Andearin");
    000000BA D41D                   MOV.L       L1164+50,R4; L1141
    000000BC 4D0B                   JSR         @R13
    000000BE 0009                   NOP
       Taumath.c    40            puts("--------------------");
    000000C0 D41C                   MOV.L       L1164+54,R4; L1142
    000000C2 4D0B                   JSR         @R13
    000000C4 0009                   NOP
    000000C6 EA00                   MOV         #0,R10
    000000C8 9B1A                   MOV.W       L1164+2,R11; H'0100
    000000CA 6EF3                   MOV         R15,R14
    000000CC D81A                   MOV.L       L1164+58,R8; L1145
    000000CE 7E04                   ADD         #4,R14
    000000D0 D91A                   MOV.L       L1164+62,R9; L1144
    000000D2 DC1B                   MOV.L       L1164+66,R12; _dPrintf
       Taumath.c    41    
       Taumath.c    42            for(;;)
    000000D4              L1160:                            
       Taumath.c    43            {
       Taumath.c    44                    printf(">");
    000000D4 4C0B                   JSR         @R12
    000000D6 2F96                   MOV.L       R9,@-R15
       Taumath.c    45                    *expr = '\0';
    000000D8 2EA0                   MOV.B       R10,@R14
       Taumath.c    46                    gets(expr,EXPR_BUF_SIZE);
    000000DA 65B3                   MOV         R11,R5
    000000DC D319                   MOV.L       L1164+70,R3; _dGetLine
    000000DE 430B                   JSR         @R3
    000000E0 64E3                   MOV         R14,R4
       Taumath.c    47                    puts(expr);
    000000E2 4D0B                   JSR         @R13




SH SERIES C/C++ Compiler (Ver. 6.0C)                                                                 30-Jul-2013 13:37:32  PAGE    4


SCT OFFSET   CODE       C LABEL     INSTRUCTION OPERAND    COMMENT

    000000E4 64E3                   MOV         R14,R4
       Taumath.c    48                    printf("=");
    000000E6 4C0B                   JSR         @R12
    000000E8 2F86                   MOV.L       R8,@-R15
    000000EA 7F08                   ADD         #8,R15
       Taumath.c    49                    run(expr);
    000000EC D216                   MOV.L       L1164+74,R2; _run
    000000EE 420B                   JSR         @R2
    000000F0 64E3                   MOV         R14,R4
    000000F2 AFEF                   BRA         L1160
    000000F4 0009                   NOP
    000000F6              L1162:                            
       Taumath.c    50            }
       Taumath.c    51    
       Taumath.c    52    
       Taumath.c    53            for(;;)GetKey(&key);
    000000F6 4E0B                   JSR         @R14
    000000F8 64F3                   MOV         R15,R4
    000000FA AFFC                   BRA         L1162
    000000FC 0009                   NOP
    000000FE              L1164:                            
    000000FE 01F4                   .DATA.W     H'01F4
    00000100 0100                   .DATA.W     H'0100
    00000102 FEFC                   .DATA.W     H'FEFC
    00000104 <00000000>             .DATA.L     _calloc
    00000108 <00000000>             .DATA.L     _free_stack
    0000010C <00000000>             .DATA.L     _mem
    00000110 <00000000>             .DATA.L     _stack
    00000114 <00000000>             .DATA.L     _symtab
    00000118 <00000000>             .DATA.L     _binding
    0000011C <00000000>             .DATA.L     _arglist
    00000120 <00000000>             .DATA.L     _logbuf
    00000124 <00000000>             .DATA.L     _Bdisp_AllClr_DDVRAM
    00000128 <00000000>             .DATA.L     _dPuts
    0000012C <00000000>             .DATA.L     L1140
    00000130 <00000000>             .DATA.L     L1141
    00000134 <00000000>             .DATA.L     L1142
    00000138 <00000000>             .DATA.L     L1145
    0000013C <00000000>             .DATA.L     L1144
    00000140 <00000000>             .DATA.L     _dPrintf
    00000144 <00000000>             .DATA.L     _dGetLine
    00000148 <00000000>             .DATA.L     _run
    0000014C              L1158:                            
       Taumath.c    54        return 1;
       Taumath.c    55    }
    0000014C 9109                   MOV.W       L1165,R1   ; H'0104
    0000014E 3F1C                   ADD         R1,R15
    00000150 4F26                   LDS.L       @R15+,PR
    00000152 68F6                   MOV.L       @R15+,R8
    00000154 69F6                   MOV.L       @R15+,R9
    00000156 6AF6                   MOV.L       @R15+,R10
    00000158 6BF6                   MOV.L       @R15+,R11
    0000015A 6CF6                   MOV.L       @R15+,R12
    0000015C 6DF6                   MOV.L       @R15+,R13
    0000015E 000B                   RTS
    00000160 6EF6                   MOV.L       @R15+,R14
    00000162              L1165:                            




SH SERIES C/C++ Compiler (Ver. 6.0C)                                                                 30-Jul-2013 13:37:32  PAGE    5


SCT OFFSET   CODE       C LABEL     INSTRUCTION OPERAND    COMMENT

    00000162 0104                   .DATA.W     H'0104
       Taumath.c    56    
       Taumath.c    57    #pragma section _BR_Size
       Taumath.c    58    unsigned long BR_Size;
       Taumath.c    59    #pragma section
       Taumath.c    60    
       Taumath.c    61    #pragma section _TOP
       Taumath.c    62    int InitializeSystem(int isAppli, unsigned short OptionNum)
P_T 00000000              _InitializeSystem:               ; function: InitializeSystem
                                                           ; frame size=0
       Taumath.c    63    {
       Taumath.c    64        return INIT_ADDIN_APPLICATION(isAppli, OptionNum);
    00000000 D301                   MOV.L       L1166+2,R3 ; _INIT_ADDIN_APPLICATION
    00000002 432B                   JMP         @R3
    00000004 0009                   NOP
    00000006              L1166:                            
    00000006 0000                   .DATA.W     0
    00000008 <00000000>             .DATA.L     _INIT_ADDIN_APPLICATION
       Taumath.c    65    }
       Taumath.c    66    #pragma section
       Taumath.c    67    
C   00000000              L1140:
    00000000 656967656E             .SDATA      "eigenmath-FX 1.0"
             6D6174682D   
             465820312E   
             30           
    00000010 00                     .DATA.B     H'00
    00000011 00000001               .RES.B      1
    00000012 00000002               .RES.W      1
    00000014              L1141:
    00000014 2020706F72             .SDATA      "  ported by Andearin"
             7465642062   
             7920416E64   
             656172696E   
    00000028 00                     .DATA.B     H'00
    00000029 00000001               .RES.B      1
    0000002A 00000002               .RES.W      1
    0000002C              L1142:
    0000002C 2D2D2D2D2D             .SDATA      "--------------------"
             2D2D2D2D2D   
             2D2D2D2D2D   
             2D2D2D2D2D   
    00000040 00                     .DATA.B     H'00
    00000041 00000001               .RES.B      1
    00000042 00000002               .RES.W      1
    00000044              L1144:
    00000044 3E                     .SDATA      ">"
    00000045 00                     .DATA.B     H'00
    00000046 00000002               .RES.W      1
    00000048              L1145:
    00000048 3D                     .SDATA      "="
    00000049 00                     .DATA.B     H'00
B_B 00000000              _BR_Size:                        ; static: BR_Size
    00000000 00000004               .RES.L      1







SH SERIES C/C++ Compiler (Ver. 6.0C)                                                                 30-Jul-2013 13:37:32  PAGE    1


******** STATISTICS INFORMATION ********


********** ERROR INFORMATION ***********

NUMBER OF ERRORS:           0
NUMBER OF WARNINGS:         1




******* SOURCE LINE INFORMATION ********

COMPILED SOURCE LINE:       67



******* SECTION SIZE INFORMATION *******

PROGRAM  SECTION (P):                               00000164 Byte(s)
PROGRAM  SECTION (P_BR_Size):                       00000000 Byte(s)
PROGRAM  SECTION (P_TOP):                           0000000C Byte(s)
CONSTANT SECTION (C):                               0000004A Byte(s)
CONSTANT SECTION (C_BR_Size):                       00000000 Byte(s)
CONSTANT SECTION (C_TOP):                           00000000 Byte(s)
DATA     SECTION (D):                               00000000 Byte(s)
DATA     SECTION (D_BR_Size):                       00000000 Byte(s)
DATA     SECTION (D_TOP):                           00000000 Byte(s)
BSS      SECTION (B):                               00000000 Byte(s)
BSS      SECTION (B_BR_Size):                       00000004 Byte(s)
BSS      SECTION (B_TOP):                           00000000 Byte(s)

 TOTAL PROGRAM SIZE: 000001BE Byte(s)



********** LABEL INFORMATION ***********

NUMBER OF EXTERNAL REFERENCE SYMBOLS:           15
NUMBER OF EXTERNAL DEFINITION SYMBOLS:           4
NUMBER OF INTERNAL/EXTERNAL SYMBOLS:            32






















*** COMMAND PARAMETER ***


  -subcommand=C:\Users\ADMINI~1\AppData\Local\Temp\hmkE7A9.tmp 

